
usos.elf:     file format elf32-littlenios2
usos.elf
architecture: nios2, flags 0x00000112:
EXEC_P, HAS_SYMS, D_PAGED
start address 0x000001bc

Program Header:
    LOAD off    0x00001020 vaddr 0x00000020 paddr 0x00000020 align 2**12
         filesz 0x00010b4c memsz 0x0001c080 flags rwx
    LOAD off    0x00012000 vaddr 0x02009000 paddr 0x02009000 align 2**12
         filesz 0x00000000 memsz 0x00000000 flags r-x

Sections:
Idx Name          Size      VMA       LMA       File off  Algn
  0 .entry        00000000  02009000  02009000  00012000  2**5
                  CONTENTS, ALLOC, LOAD, READONLY, CODE
  1 .exceptions   0000019c  00000020  00000020  00001020  2**2
                  CONTENTS, ALLOC, LOAD, READONLY, CODE
  2 .text         0000eb18  000001bc  000001bc  000011bc  2**2
                  CONTENTS, ALLOC, LOAD, READONLY, CODE
  3 .rodata       000002fc  0000ecd4  0000ecd4  0000fcd4  2**2
                  CONTENTS, ALLOC, LOAD, READONLY, DATA
  4 .rwdata       00001b9c  0000efd0  0000efd0  0000ffd0  2**2
                  CONTENTS, ALLOC, LOAD, DATA, SMALL_DATA
  5 .bss          0000b534  00010b6c  00010b6c  00011b6c  2**2
                  ALLOC, SMALL_DATA
  6 .comment      00000026  00000000  00000000  00012000  2**0
                  CONTENTS, READONLY
  7 .debug_aranges 00000930  00000000  00000000  00012028  2**3
                  CONTENTS, READONLY, DEBUGGING
  8 .debug_pubnames 00001a1c  00000000  00000000  00012958  2**0
                  CONTENTS, READONLY, DEBUGGING
  9 .debug_info   0001c89f  00000000  00000000  00014374  2**0
                  CONTENTS, READONLY, DEBUGGING
 10 .debug_abbrev 00005cc2  00000000  00000000  00030c13  2**0
                  CONTENTS, READONLY, DEBUGGING
 11 .debug_line   00011524  00000000  00000000  000368d5  2**0
                  CONTENTS, READONLY, DEBUGGING
 12 .debug_frame  00001c04  00000000  00000000  00047dfc  2**2
                  CONTENTS, READONLY, DEBUGGING
 13 .debug_str    000012be  00000000  00000000  00049a00  2**0
                  CONTENTS, READONLY, DEBUGGING
 14 .debug_loc    00003790  00000000  00000000  0004acbe  2**0
                  CONTENTS, READONLY, DEBUGGING
 15 .debug_alt_sim_info 00000010  00000000  00000000  0004e450  2**2
                  CONTENTS, READONLY, DEBUGGING
 16 .debug_ranges 00000298  00000000  00000000  0004e460  2**3
                  CONTENTS, READONLY, DEBUGGING
 17 .thread_model 00000006  00000000  00000000  000522d9  2**0
                  CONTENTS, READONLY
 18 .cpu          0000000c  00000000  00000000  000522df  2**0
                  CONTENTS, READONLY
 19 .qsys         00000001  00000000  00000000  000522eb  2**0
                  CONTENTS, READONLY
 20 .simulation_enabled 00000001  00000000  00000000  000522ec  2**0
                  CONTENTS, READONLY
 21 .stderr_dev   0000000b  00000000  00000000  000522ed  2**0
                  CONTENTS, READONLY
 22 .stdin_dev    0000000b  00000000  00000000  000522f8  2**0
                  CONTENTS, READONLY
 23 .stdout_dev   0000000b  00000000  00000000  00052303  2**0
                  CONTENTS, READONLY
 24 .sopc_system_name 00000008  00000000  00000000  0005230e  2**0
                  CONTENTS, READONLY
 25 .quartus_project_dir 00000003  00000000  00000000  00052316  2**0
                  CONTENTS, READONLY
 26 .sopcinfo     000e0f1e  00000000  00000000  00052319  2**0
                  CONTENTS, READONLY
SYMBOL TABLE:
02009000 l    d  .entry	00000000 .entry
00000020 l    d  .exceptions	00000000 .exceptions
000001bc l    d  .text	00000000 .text
0000ecd4 l    d  .rodata	00000000 .rodata
0000efd0 l    d  .rwdata	00000000 .rwdata
00010b6c l    d  .bss	00000000 .bss
00000000 l    d  .comment	00000000 .comment
00000000 l    d  .debug_aranges	00000000 .debug_aranges
00000000 l    d  .debug_pubnames	00000000 .debug_pubnames
00000000 l    d  .debug_info	00000000 .debug_info
00000000 l    d  .debug_abbrev	00000000 .debug_abbrev
00000000 l    d  .debug_line	00000000 .debug_line
00000000 l    d  .debug_frame	00000000 .debug_frame
00000000 l    d  .debug_str	00000000 .debug_str
00000000 l    d  .debug_loc	00000000 .debug_loc
00000000 l    d  .debug_alt_sim_info	00000000 .debug_alt_sim_info
00000000 l    d  .debug_ranges	00000000 .debug_ranges
000001f0 l       .text	00000000 alt_after_alt_main
00000000 l    df *ABS*	00000000 alt_irq_handler.c
00000000 l    df *ABS*	00000000 hello_ucosii.c
00000000 l    df *ABS*	00000000 alt_main.c
00000000 l    df *ABS*	00000000 alt_env_lock.c
00010abc l     O .rwdata	00000004 lockid
00010b78 l     O .bss	00000004 locks
00000000 l    df *ABS*	00000000 alt_malloc_lock.c
00010ac0 l     O .rwdata	00000004 lockid
00010b80 l     O .bss	00000004 locks
00000000 l    df *ABS*	00000000 os_core.c
00001df8 l     F .text	00000044 OS_InitMisc
00001e3c l     F .text	0000006c OS_InitRdyList
00001fa0 l     F .text	000000e0 OS_InitTCBList
00001d1c l     F .text	000000dc OS_InitEventList
00001ea8 l     F .text	0000007c OS_InitTaskIdle
00001f24 l     F .text	0000007c OS_InitTaskStat
00002214 l     F .text	00000070 OS_SchedNew
00000000 l    df *ABS*	00000000 os_dbg.c
00000000 l    df *ABS*	00000000 os_flag.c
00004134 l     F .text	00000110 OS_FlagTaskRdy
00003e8c l     F .text	000001c4 OS_FlagBlock
00000000 l    df *ABS*	00000000 os_mem.c
00000000 l    df *ABS*	00000000 os_q.c
00000000 l    df *ABS*	00000000 os_sem.c
00000000 l    df *ABS*	00000000 os_task.c
00000000 l    df *ABS*	00000000 os_time.c
00000000 l    df *ABS*	00000000 alt_sys_init.c
0000efd0 l     O .rwdata	000000c8 epcs_flash_controller_0
0000f098 l     O .rwdata	0000106c jtag_uart_0
00010104 l     O .rwdata	000000d0 New_UltraSound0
000101d4 l     O .rwdata	000000d0 New_UltraSound1
000102a4 l     O .rwdata	000000d0 New_UltraSound2
00010374 l     O .rwdata	000000d0 New_UltraSound3
00010444 l     O .rwdata	000000d0 uart_0
00008c00 l     F .text	00000038 alt_dev_reg
00000000 l    df *ABS*	00000000 altera_avalon_epcs_flash_controller.c
00008cc4 l     F .text	00000288 alt_epcs_flash_query
00008c8c l     F .text	00000038 alt_flash_device_register
00008f4c l     F .text	00000108 alt_epcs_flash_memcmp
000093d4 l     F .text	00000094 alt_epcs_test_address
00000000 l    df *ABS*	00000000 altera_avalon_jtag_uart_fd.c
00000000 l    df *ABS*	00000000 altera_avalon_jtag_uart_init.c
0000989c l     F .text	000002c4 altera_avalon_jtag_uart_irq
00009b60 l     F .text	00000114 altera_avalon_jtag_uart_timeout
00000000 l    df *ABS*	00000000 altera_avalon_jtag_uart_ioctl.c
00000000 l    df *ABS*	00000000 altera_avalon_jtag_uart_read.c
00000000 l    df *ABS*	00000000 altera_avalon_jtag_uart_write.c
00000000 l    df *ABS*	00000000 altera_avalon_timer_sc.c
0000a378 l     F .text	00000070 alt_avalon_timer_sc_irq
00000000 l    df *ABS*	00000000 altera_avalon_uart_fd.c
00000000 l    df *ABS*	00000000 altera_avalon_uart_init.c
0000a6f4 l     F .text	0000009c altera_avalon_uart_irq
0000a790 l     F .text	0000013c altera_avalon_uart_rxirq
0000a8cc l     F .text	000001c0 altera_avalon_uart_txirq
00000000 l    df *ABS*	00000000 altera_avalon_uart_read.c
0000ad9c l     F .text	00000060 alt_get_errno
00000000 l    df *ABS*	00000000 altera_avalon_uart_write.c
0000b044 l     F .text	00000060 alt_get_errno
00000000 l    df *ABS*	00000000 epcs_commands.c
0000b1fc l     F .text	00000038 epcs_await_wip_released
0000b234 l     F .text	00000038 epcs_test_wip
00000000 l    df *ABS*	00000000 alt_alarm_start.c
00000000 l    df *ABS*	00000000 alt_close.c
0000b9cc l     F .text	00000060 alt_get_errno
00000000 l    df *ABS*	00000000 alt_dev.c
0000ba2c l     F .text	0000002c alt_dev_null_write
00000000 l    df *ABS*	00000000 alt_dev_llist_insert.c
0000bb0c l     F .text	00000060 alt_get_errno
00000000 l    df *ABS*	00000000 alt_do_ctors.c
00000000 l    df *ABS*	00000000 alt_do_dtors.c
00000000 l    df *ABS*	00000000 alt_errno.c
00000000 l    df *ABS*	00000000 alt_flash_dev.c
00000000 l    df *ABS*	00000000 alt_iic.c
00000000 l    df *ABS*	00000000 alt_iic_isr_register.c
00000000 l    df *ABS*	00000000 alt_io_redirect.c
0000bfd0 l     F .text	000000d8 alt_open_fd
00000000 l    df *ABS*	00000000 alt_irq_vars.c
00000000 l    df *ABS*	00000000 alt_open.c
0000c120 l     F .text	000000f8 alt_file_locked
0000c3a4 l     F .text	00000060 alt_get_errno
00000000 l    df *ABS*	00000000 alt_release_fd.c
00000000 l    df *ABS*	00000000 alt_tick.c
00000000 l    df *ABS*	00000000 altera_nios2_qsys_irq.c
00000040 l       *ABS*	00000000 OSCtxSw_SWITCH_PC
00000000 l    df *ABS*	00000000 os_cpu_c.c
00000014 l       *ABS*	00000000 OSTCBNext_OFFSET
00000032 l       *ABS*	00000000 OSTCBPrio_OFFSET
00000000 l       *ABS*	00000000 OSTCBStkPtr_OFFSET
00000000 l    df *ABS*	00000000 altera_avalon_spi.c
00000000 l    df *ABS*	00000000 alt_find_dev.c
00000000 l    df *ABS*	00000000 alt_find_file.c
00000000 l    df *ABS*	00000000 alt_get_fd.c
00000000 l    df *ABS*	00000000 atexit.c
00000000 l    df *ABS*	00000000 exit.c
00000000 l    df *ABS*	00000000 impure.c
000106bc l     O .rwdata	00000400 impure_data
00000000 l    df *ABS*	00000000 int_errno.c
00000000 l    df *ABS*	00000000 memcmp.c
00000000 l    df *ABS*	00000000 memcpy.c
00000000 l    df *ABS*	00000000 memset.c
00000000 l    df *ABS*	00000000 strlen.c
00000000 l    df *ABS*	00000000 __atexit.c
00000000 l    df *ABS*	00000000 __call_atexit.c
0000d3bc l     F .text	00000004 register_fini
00000000 l    df *ABS*	00000000 libgcc2.c
00000000 l    df *ABS*	00000000 dp-bit.c
0000d614 l     F .text	00000410 _fpadd_parts
00000000 l    df *ABS*	00000000 dp-bit.c
00000000 l    df *ABS*	00000000 dp-bit.c
00000000 l    df *ABS*	00000000 dp-bit.c
00000000 l    df *ABS*	00000000 dp-bit.c
00000000 l    df *ABS*	00000000 dp-bit.c
00000000 l    df *ABS*	00000000 dp-bit.c
00000000 l    df *ABS*	00000000 lib2-divmod.c
0000e428 l     F .text	0000007c udivmodsi4
00000000 l    df *ABS*	00000000 lib2-mul.c
00000000 l    df *ABS*	00000000 libgcc2.c
00000000 l    df *ABS*	00000000 libgcc2.c
00000000 l    df *ABS*	00000000 dp-bit.c
00000000 l    df *ABS*	00000000 dp-bit.c
00000000 l    df *ABS*	00000000 dp-bit.c
00000000 l    df *ABS*	00000000 libgcc2.c
00000000 l    df *ABS*	00000000 alt_exit.c
0000ec64 l     F .text	00000040 alt_sim_halt
00010b0e g     O .rwdata	00000002 OSTaskNameSize
000092d4 g     F .text	00000090 alt_epcs_flash_get_info
00000358 g     F .text	000000c8 alt_main
0001be10 g     O .bss	00000100 alt_irq
00004a28 g     F .text	000000d4 OS_MemInit
00008a50 g     F .text	00000064 OSTimeSet
00000974 g     F .text	000006b4 OSEventPendMulti
0000ca24 g     F .text	00000020 OSTaskCreateHook
00010ae6 g     O .rwdata	00000002 OSMboxEn
0000107c g     F .text	0000007c OSIntEnter
00010af6 g     O .rwdata	00000002 OSQEn
00000630 g     F .text	000000d0 __malloc_unlock
0000ca80 g     F .text	0000001c OSTaskStatHook
00010b88 g     O .bss	00000001 OSLockNesting
00010b34 g     O .rwdata	00000002 OSDataSize
00010b89 g     O .bss	00000001 OSRunning
0000cab8 g     F .text	0000001c OSInitHookBegin
00010b2c g     O .rwdata	00000002 OSTmrSize
00010b8c g     O .bss	00000004 OSIdleCtr
0000c6f0 g       .text	00000000 OSStartTsk
00000000  w      *UND*	00000000 __errno
00002548 g     F .text	000002e0 OS_TCBInit
0000b104 g     F .text	000000f8 epcs_sector_erase
02009000 g     F .entry	00000000 __reset
00010b32 g     O .rwdata	00000002 OSTmrWheelTblSize
00010ad2 g     O .rwdata	00000002 OSEventSize
00010b90 g     O .bss	00000001 OSPrioHighRdy
0000ca44 g     F .text	00000020 OSTaskDelHook
00010be8 g     O .bss	00000004 errno
0000c6d0 g       .text	00000000 OSStartHighRdy
00007140 g     F .text	00000200 OSTaskCreateExt
000039a8 g     F .text	00000068 OSFlagPendGetFlagsRdy
00010b12 g     O .rwdata	00000002 OSTaskStatStkSize
000029b4 g     F .text	00000334 OSFlagAccept
00005164 g     F .text	000000c8 OSQFlush
00004afc g     F .text	00000154 OSQAccept
00010b70 g     O .bss	00000004 alt_argv
00018abc g       *ABS*	00000000 _gp
00006f6c g     F .text	000001d4 OSTaskCreate
000069f8 g     F .text	00000574 OSTaskChangePrio
00010b84 g     O .bss	00000004 alt_heapsem
00002828 g     F .text	0000018c OSDebugInit
00007340 g     F .text	0000040c OSTaskDel
0001053c g     O .rwdata	00000180 alt_fd_list
00018bec g     O .bss	00000370 OSFlagTbl
00001af8 g     F .text	000000b8 OS_EventTaskRemove
0000b408 g     F .text	00000064 epcs_write_status_register
0000cd64 g     F .text	00000094 alt_find_dev
0000d0dc g     F .text	000000a0 memcpy
00010afc g     O .rwdata	00000002 OSRdyTblSize
0000c0a8 g     F .text	00000078 alt_io_redirect
0000ecd4 g       *ABS*	00000000 __DTOR_END__
00000700 g     F .text	00000130 OSEventNameGet
00010ae0 g     O .rwdata	00000002 OSFlagMax
00009468 g     F .text	0000011c alt_epcs_flash_write_block
000010f8 g     F .text	00000100 OSIntExit
00010b1a g     O .rwdata	00000002 OSTCBSize
00010b91 g     O .bss	00000001 OSPrioCur
00009ddc g     F .text	000002c0 altera_avalon_jtag_uart_read
00000000  w      *UND*	00000000 malloc
02004000 g       *ABS*	00000000 __alt_mem_onchip_memory2_0
0000e564 g     F .text	00000008 __udivsi3
00010b00 g     O .rwdata	00000002 OSStkWidth
00010af4 g     O .rwdata	00000002 OSPtrSize
00010ad4 g     O .rwdata	00000002 OSEventTblSize
0000d570 g     F .text	000000a4 __fixunsdfsi
0000c644 g       .text	00000000 OSCtxSw
00010b94 g     O .bss	00000004 OSTCBList
00010bd8 g     O .bss	00000004 alt_fd_list_lock
00018f5c g     O .bss	00000c30 OSMemTbl
00010b98 g     O .bss	00000001 OSTickStepState
00010af8 g     O .rwdata	00000002 OSQMax
00019b8c g     O .bss	00000800 OSTaskStatStk
00004610 g     F .text	0000010c OSMemNameGet
00010ad8 g     O .rwdata	00000002 OSFlagEn
00010b1e g     O .rwdata	00000002 OSTimeTickHookEn
000056c8 g     F .text	00000180 OSQPost
00004244 g     F .text	000000ac OS_FlagUnlink
00010b48 g     O .rwdata	00000004 alt_max_fd
000020d4 g     F .text	0000006c OS_MemCopy
0000ea64 g     F .text	00000138 __unpack_d
00002140 g     F .text	000000d4 OS_Sched
0000450c g     F .text	00000104 OSMemGet
00007a74 g     F .text	000001c4 OSTaskNameSet
00010b9c g     O .bss	00000004 OSCtxSwCtr
0000ca9c g     F .text	0000001c OSTimeTickHook
00010ae2 g     O .rwdata	00000002 OSFlagNameSize
00001bb0 g     F .text	00000104 OS_EventTaskRemoveMulti
0000daa4 g     F .text	00000074 __adddf3
000019a4 g     F .text	00000154 OS_EventTaskWaitMulti
00009364 g     F .text	00000070 alt_epcs_flash_erase_block
00010afa g     O .rwdata	00000002 OSQSize
000062a4 g     F .text	0000027c OSSemPend
00010b68 g     O .rwdata	00000004 _global_impure_ptr
0000b720 g     F .text	00000058 epcs_exit_4_bytes_mode
00010ae4 g     O .rwdata	00000002 OSLowestPrio
0001c0a0 g       *ABS*	00000000 __bss_end
0000bed8 g     F .text	000000f8 alt_iic_isr_register
0000cb0c g     F .text	00000020 OSTCBInitHook
00010b2a g     O .rwdata	00000002 OSTmrCfgTicksPerSec
0000c514 g     F .text	00000110 alt_tick
00010acc g     O .rwdata	00000002 OSEventEn
00010b26 g     O .rwdata	00000002 OSTmrCfgNameSize
0000e294 g     F .text	00000194 __floatunsidf
0000a570 g     F .text	00000184 altera_avalon_uart_init
0000be90 g     F .text	00000048 alt_ic_irq_enabled
00004050 g     F .text	000000e4 OS_FlagInit
0000c47c g     F .text	00000098 alt_alarm_stop
00010b08 g     O .rwdata	00000002 OSTaskIdleStkSize
00010bdc g     O .bss	00000004 alt_irq_active
00005e30 g     F .text	000000c0 OSSemAccept
0000483c g     F .text	000000f0 OSMemPut
000042f0 g     F .text	0000021c OSMemCreate
00010ba0 g     O .bss	00000004 OSIdleCtrMax
000000ec g     F .exceptions	000000d0 alt_irq_handler
00010514 g     O .rwdata	00000028 alt_dev_null
00010b1c g     O .rwdata	00000002 OSTicksPerSec
0000c644 g       .text	00000000 OSIntCtxSw
0000e1bc g     F .text	000000d8 __fixdfsi
00010ba4 g     O .bss	00000004 OSTCBFreeList
00006520 g     F .text	0000017c OSSemPendAbort
00010b40 g     O .rwdata	00000008 alt_dev_list
00010b20 g     O .rwdata	00000002 OSVersionNbr
00010ac8 g     O .rwdata	00000004 OSEndiannessTest
0000e56c g     F .text	00000008 __umodsi3
0000b5dc g     F .text	0000006c epcs_read_electronic_signature
00010ada g     O .rwdata	00000002 OSFlagGrpSize
0001c0a0 g       *ABS*	00000000 end
0000adfc g     F .text	00000248 altera_avalon_uart_write
00009764 g     F .text	00000138 altera_avalon_jtag_uart_init
000023b8 g     F .text	000000c8 OS_TaskStat
0000ecd0 g       *ABS*	00000000 __CTOR_LIST__
02000000 g       *ABS*	00000000 __alt_stack_pointer
0000a3e8 g     F .text	00000090 alt_avalon_timer_sc_init
0000e6d0 g     F .text	00000080 __clzsi2
0000a4d0 g     F .text	00000058 altera_avalon_uart_write_fd
0000a528 g     F .text	00000048 altera_avalon_uart_close_fd
0000a09c g     F .text	000002dc altera_avalon_jtag_uart_write
00002080 g     F .text	00000054 OS_MemClr
0000c714 g     F .text	00000310 OSTaskStkInit
000001f4 g     F .text	000000d4 task1
00001700 g     F .text	00000194 OS_EventTaskRdy
0000d3c0 g     F .text	000001b0 __call_exitprocs
00010ba8 g     O .bss	00000001 OSCPUUsage
000001bc g     F .text	00000038 _start
00010be0 g     O .bss	00000004 _alt_tick_rate
0000522c g     F .text	00000320 OSQPend
00008438 g     F .text	0000014c OSTimeDly
0000cb2c g     F .text	00000238 alt_avalon_spi_command
00010be4 g     O .bss	00000004 _alt_nticks
00008ae8 g     F .text	00000118 alt_sys_init
0000d288 g     F .text	00000134 __register_exitproc
00010ba9 g     O .bss	00000001 OSTaskCtr
00008584 g     F .text	00000258 OSTimeDlyHMSM
00009c74 g     F .text	00000074 altera_avalon_jtag_uart_close
0000e574 g     F .text	00000038 __mulsi3
00010ace g     O .rwdata	00000002 OSEventMax
0000669c g     F .text	00000128 OSSemPost
0000b0a4 g     F .text	00000060 epcs_read_status_register
00001284 g     F .text	000000e4 OSSchedUnlock
0000961c g     F .text	00000058 altera_avalon_jtag_uart_read_fd
0000cf18 g     F .text	00000104 alt_get_fd
00010bac g     O .bss	00000004 OSMemFreeList
000013d8 g     F .text	000000ac OSStatInit
00003db8 g     F .text	000000d4 OSFlagQuery
0000eb9c g     F .text	000000c8 __fpcmp_parts_d
00010b04 g     O .rwdata	00000002 OSTaskCreateExtEn
0000b648 g     F .text	00000080 epcs_read_device_id
0000d068 g     F .text	00000074 memcmp
000016e4 g     F .text	0000001c OS_Dummy
000096cc g     F .text	00000048 altera_avalon_jtag_uart_close_fd
0001c0a0 g       *ABS*	00000000 __alt_stack_base
00009714 g     F .text	00000050 altera_avalon_jtag_uart_ioctl_fd
02009000 g       *ABS*	00000000 __alt_mem_epcs_flash_controller_0
0001a38c g     O .bss	000001e0 OSQTbl
0000dedc g     F .text	00000258 __divdf3
0000db18 g     F .text	000003c4 __muldf3
00010bb0 g     O .bss	00000004 OSTCBHighRdy
00010bb4 g     O .bss	00000004 OSQFreeList
0000cdf8 g     F .text	00000120 alt_find_file
0000ba58 g     F .text	000000b4 alt_dev_llist_insert
00000528 g     F .text	00000108 __malloc_lock
00000830 g     F .text	00000144 OSEventNameSet
00010bb8 g     O .bss	00000001 OSRdyGrp
00010b50 g     O .rwdata	00000008 alt_flash_dev_list
00010b6c g       *ABS*	00000000 __bss_start
0000d17c g     F .text	00000098 memset
000002c8 g     F .text	00000090 main
00010b74 g     O .bss	00000004 alt_envp
00009674 g     F .text	00000058 altera_avalon_jtag_uart_write_fd
0000ece8 g     O .rodata	00000100 OSUnMapTbl
00010afe g     O .rwdata	00000002 OSSemEn
00003a10 g     F .text	000003a8 OSFlagPost
00001894 g     F .text	00000110 OS_EventTaskWait
00002480 g     F .text	000000c8 OS_TaskStatStkChk
0001bf10 g     O .bss	00000190 _atexit0
0000774c g     F .text	00000170 OSTaskDelReq
00010b4c g     O .rwdata	00000004 alt_errno
00001368 g     F .text	00000070 OSStart
000004cc g     F .text	0000005c __env_unlock
00007c38 g     F .text	00000218 OSTaskResume
0000492c g     F .text	000000fc OSMemQuery
00010b10 g     O .rwdata	00000002 OSTaskStatEn
00010aea g     O .rwdata	00000002 OSMemMax
00005848 g     F .text	00000188 OSQPostFront
0000e4a4 g     F .text	00000060 __divsi3
00010bb9 g     O .bss	00000003 OSRdyTbl
00010ac4 g     O .rwdata	00000002 OSDebugEn
0000eebc g     O .rodata	00000014 __thenan_df
0000ecd4 g       *ABS*	00000000 __CTOR_END__
00010adc g     O .rwdata	00000002 OSFlagNodeSize
00010b24 g     O .rwdata	00000002 OSTmrCfgMax
00009054 g     F .text	00000280 alt_epcs_flash_write
00004c50 g     F .text	00000214 OSQCreate
000078bc g     F .text	000001b8 OSTaskNameGet
000059d0 g     F .text	00000234 OSQPostOpt
00001484 g     F .text	00000240 OSTimeTick
00010b0c g     O .rwdata	00000002 OSTaskMax
0000ecd4 g       *ABS*	00000000 __DTOR_LIST__
00005ef0 g     F .text	00000114 OSSemCreate
00010b30 g     O .rwdata	00000002 OSTmrWheelSize
00010b06 g     O .rwdata	00000002 OSTaskDelEn
000067c4 g     F .text	00000130 OSSemQuery
00004e64 g     F .text	00000300 OSQDel
0000554c g     F .text	0000017c OSQPendAbort
00008ab4 g     F .text	00000034 alt_irq_init
0000c404 g     F .text	00000078 alt_release_fd
0000eed0 g     O .rodata	00000100 __clz_tab
0000d01c g     F .text	00000014 atexit
000011f8 g     F .text	0000008c OSSchedLock
00002ce8 g     F .text	0000013c OSFlagCreate
00010b64 g     O .rwdata	00000004 _impure_ptr
00010b6c g     O .bss	00000004 alt_argc
0000bbd0 g     F .text	00000064 _do_dtors
00010ad6 g     O .rwdata	00000002 OSEventMultiEn
00002e24 g     F .text	000002a8 OSFlagDel
00010bbc g     O .bss	00000004 OSEventFreeList
00000020 g       .exceptions	00000000 alt_irq_entry
00003364 g     F .text	00000644 OSFlagPend
00010b22 g     O .rwdata	00000002 OSTmrEn
00010b38 g     O .rwdata	00000008 alt_fs_list
00002284 g     F .text	00000080 OS_StrCopy
00010aec g     O .rwdata	00000002 OSMemNameSize
0000cad4 g     F .text	0000001c OSInitHookEnd
00010b18 g     O .rwdata	00000002 OSTCBPrioTblMax
0000b26c g     F .text	0000014c epcs_read_buffer
00010b14 g     O .rwdata	00000002 OSTaskStatStkChkEn
00008c38 g     F .text	00000054 alt_epcs_flash_init
0000bd04 g     F .text	00000050 alt_ic_isr_register
00010ae8 g     O .rwdata	00000002 OSMemEn
00010af2 g     O .rwdata	00000002 OSMutexEn
00010b6c g       *ABS*	00000000 _edata
0000a478 g     F .text	00000058 altera_avalon_uart_read_fd
0001c0a0 g       *ABS*	00000000 _end
0000bc34 g     F .text	0000007c alt_flash_open_dev
00010bc0 g     O .bss	00000001 OSIntNesting
00009ce8 g     F .text	000000f4 altera_avalon_jtag_uart_ioctl
000087dc g     F .text	00000210 OSTimeDlyResume
00003210 g     F .text	00000154 OSFlagNameSet
00007e50 g     F .text	000001fc OSTaskStkChk
0000bdf0 g     F .text	000000a0 alt_ic_irq_disable
0000b6c8 g     F .text	00000058 epcs_enter_4_bytes_mode
00010aee g     O .rwdata	00000002 OSMemSize
0000c624 g     F .text	00000020 altera_nios2_qsys_irq_init
00010bc4 g     O .bss	00000004 OSTCBCur
0000d030 g     F .text	00000038 exit
00010af0 g     O .rwdata	00000002 OSMemTblSize
0000bcb0 g     F .text	00000054 alt_flash_close_dev
0000e504 g     F .text	00000060 __modsi3
02000000 g       *ABS*	00000000 __alt_data_end
00010bec g     O .bss	00008000 TaskStk
00000020 g     F .exceptions	00000000 alt_exception
00001028 g     F .text	00000054 OSInit
00000000 g       *ABS*	00000000 __alt_mem_sdram
00008278 g     F .text	00000144 OSTaskQuery
00005d84 g     F .text	000000ac OS_QInit
00002304 g     F .text	00000058 OS_StrLen
0000471c g     F .text	00000120 OSMemNameSet
00010b0a g     O .rwdata	00000002 OSTaskProfileEn
00010bc8 g     O .bss	00000004 OSTime
0000aa8c g     F .text	00000060 altera_avalon_uart_close
0001a56c g     O .bss	00000800 OSTaskIdleStk
0000eca4 g     F .text	0000002c _exit
0000b778 g     F .text	00000154 alt_alarm_start
000030cc g     F .text	00000144 OSFlagNameGet
000089ec g     F .text	00000064 OSTimeGet
0000e5ac g     F .text	00000124 __muldi3
0000d214 g     F .text	00000074 strlen
0000b3b8 g     F .text	00000050 epcs_write_enable
0000ca64 g     F .text	0000001c OSTaskSwHook
0000c218 g     F .text	0000018c open
0001ad6c g     O .bss	00000b40 OSEventTbl
0000e134 g     F .text	00000088 __gedf2
0001b8ac g     O .bss	00000510 OSTCBTbl
000068f4 g     F .text	00000104 OSSemSet
00010b58 g     O .rwdata	00000004 alt_priority_mask
00006004 g     F .text	000002a0 OSSemDel
00010bcc g     O .bss	00000004 OSFlagFreeList
0000bd54 g     F .text	0000009c alt_ic_irq_enable
00010ad0 g     O .rwdata	00000002 OSEventNameSize
00010bd0 g     O .bss	00000001 OSStatRdy
0001bdbc g     O .bss	00000054 OSTCBPrioTbl
0000aaec g     F .text	000002b0 altera_avalon_uart_read
00000420 g     F .text	000000ac __env_lock
00010b16 g     O .rwdata	00000002 OSTaskSwHookEn
0000da24 g     F .text	00000080 __subdf3
00009584 g     F .text	00000098 alt_epcs_flash_read
00010b5c g     O .rwdata	00000008 alt_alarm_list
00010ade g     O .rwdata	00000002 OSFlagWidth
0000bb6c g     F .text	00000064 _do_ctors
0000b8cc g     F .text	00000100 close
00010b7c g     O .bss	00000004 alt_envsem
00010bd4 g     O .bss	00000004 OSIdleCtrRun
000016c4 g     F .text	00000020 OSVersion
00010b28 g     O .rwdata	00000002 OSTmrCfgWheelSize
000083bc g     F .text	0000007c OS_TaskStkClr
0000e750 g     F .text	00000314 __pack_d
00010b02 g     O .rwdata	00000002 OSTaskCreateEn
00001cb4 g     F .text	00000068 OS_EventWaitListInit
0000caf0 g     F .text	0000001c OSTaskIdleHook
00000000  w      *UND*	00000000 free
0000b46c g     F .text	00000170 epcs_write_buffer
0000804c g     F .text	0000022c OSTaskSuspend
0000235c g     F .text	0000005c OS_TaskIdle
00010b2e g     O .rwdata	00000002 OSTmrTblSize
00005c04 g     F .text	00000180 OSQQuery



Disassembly of section .exceptions:

00000020 <alt_exception>:
         * Process an exception.  For all exceptions we must preserve all
         * caller saved registers on the stack (See the Nios2 ABI
         * documentation for details).
         */

        addi  sp, sp, -76
  20:	deffed04 	addi	sp,sp,-76

#endif

#endif

        stw   ra,  0(sp)
  24:	dfc00015 	stw	ra,0(sp)
        /*
         * Leave a gap in the stack frame at 4(sp) for the muldiv handler to
         * store zero into.
         */

        stw   r1,   8(sp)
  28:	d8400215 	stw	at,8(sp)
        stw   r2,  12(sp)
  2c:	d8800315 	stw	r2,12(sp)
        stw   r3,  16(sp)
  30:	d8c00415 	stw	r3,16(sp)
        stw   r4,  20(sp)
  34:	d9000515 	stw	r4,20(sp)
        stw   r5,  24(sp)
  38:	d9400615 	stw	r5,24(sp)
        stw   r6,  28(sp)
  3c:	d9800715 	stw	r6,28(sp)
        stw   r7,  32(sp)
  40:	d9c00815 	stw	r7,32(sp)

        rdctl r5, estatus
  44:	000b307a 	rdctl	r5,estatus

        stw   r8,  36(sp)
  48:	da000915 	stw	r8,36(sp)
        stw   r9,  40(sp)
  4c:	da400a15 	stw	r9,40(sp)
        stw   r10, 44(sp)
  50:	da800b15 	stw	r10,44(sp)
        stw   r11, 48(sp)
  54:	dac00c15 	stw	r11,48(sp)
        stw   r12, 52(sp)
  58:	db000d15 	stw	r12,52(sp)
        stw   r13, 56(sp)
  5c:	db400e15 	stw	r13,56(sp)
        stw   r14, 60(sp)
  60:	db800f15 	stw	r14,60(sp)
        stw   r15, 64(sp)
  64:	dbc01015 	stw	r15,64(sp)
        /*
         * ea-4 contains the address of the instruction being executed
         * when the exception occured. For interrupt exceptions, we will
         * will be re-issue the isntruction. Store it in 72(sp)
         */
        stw   r5,  68(sp)  /* estatus */
  68:	d9401115 	stw	r5,68(sp)
        addi  r15, ea, -4  /* instruction that caused exception */
  6c:	ebffff04 	addi	r15,ea,-4
        stw   r15,  72(sp)
  70:	dbc01215 	stw	r15,72(sp)
#else
        /*
         * Test to see if the exception was a software exception or caused 
         * by an external interrupt, and vector accordingly.
         */
        rdctl r4, ipending
  74:	0009313a 	rdctl	r4,ipending
        andi  r2, r5, 1
  78:	2880004c 	andi	r2,r5,1
        beq   r2, zero, .Lnot_irq
  7c:	10000326 	beq	r2,zero,8c <OSCtxSw_SWITCH_PC+0x4c>
        beq   r4, zero, .Lnot_irq
  80:	20000226 	beq	r4,zero,8c <OSCtxSw_SWITCH_PC+0x4c>
        /*
         * Now that all necessary registers have been preserved, call 
         * alt_irq_handler() to process the interrupts.
         */

        call alt_irq_handler
  84:	00000ec0 	call	ec <alt_irq_handler>

        .section .exceptions.irqreturn, "xa"

        br    .Lexception_exit
  88:	00000306 	br	98 <OSCtxSw_SWITCH_PC+0x58>
         * upon completion, so we write ea (address of instruction *after*
         * the one where the exception occured) into 72(sp). The actual
         * instruction that caused the exception is written in r2, which these
         * handlers will utilize.
         */
        stw   ea,  72(sp)  /* Don't re-issue */
  8c:	df401215 	stw	ea,72(sp)
        ldw   r2, -4(ea)   /* Instruction that caused exception */
  90:	e8bfff17 	ldw	r2,-4(ea)
#ifdef NIOS2_HAS_DEBUG_STUB
       /*
        *  Either tell the user now (if there is a debugger attached) or go into
        *  the debug monitor which will loop until a debugger is attached.
        */
        break
  94:	003da03a 	break	0
        /* 
         * Restore the saved registers, so that all general purpose registers 
         * have been restored to their state at the time the interrupt occured.
         */

        ldw   r5,  68(sp)
  98:	d9401117 	ldw	r5,68(sp)
        ldw   ea,  72(sp)  /* This becomes the PC once eret is executed */
  9c:	df401217 	ldw	ea,72(sp)
        ldw   ra,   0(sp)
  a0:	dfc00017 	ldw	ra,0(sp)

        wrctl estatus, r5
  a4:	2801707a 	wrctl	estatus,r5

        ldw   r1,   8(sp)
  a8:	d8400217 	ldw	at,8(sp)
        ldw   r2,  12(sp)
  ac:	d8800317 	ldw	r2,12(sp)
        ldw   r3,  16(sp)
  b0:	d8c00417 	ldw	r3,16(sp)
        ldw   r4,  20(sp)
  b4:	d9000517 	ldw	r4,20(sp)
        ldw   r5,  24(sp)
  b8:	d9400617 	ldw	r5,24(sp)
        ldw   r6,  28(sp)
  bc:	d9800717 	ldw	r6,28(sp)
        ldw   r7,  32(sp)
  c0:	d9c00817 	ldw	r7,32(sp)
#ifdef ALT_STACK_CHECK
        ldw   et, %gprel(alt_exception_old_stack_limit)(gp)
#endif
#endif

        ldw   r8,  36(sp)
  c4:	da000917 	ldw	r8,36(sp)
        ldw   r9,  40(sp)
  c8:	da400a17 	ldw	r9,40(sp)
        ldw   r10, 44(sp)
  cc:	da800b17 	ldw	r10,44(sp)
        ldw   r11, 48(sp)
  d0:	dac00c17 	ldw	r11,48(sp)
        ldw   r12, 52(sp)
  d4:	db000d17 	ldw	r12,52(sp)
        ldw   r13, 56(sp)
  d8:	db400e17 	ldw	r13,56(sp)
        ldw   r14, 60(sp)
  dc:	db800f17 	ldw	r14,60(sp)
        ldw   r15, 64(sp)
  e0:	dbc01017 	ldw	r15,64(sp)
#endif

        ldw   sp,  76(sp)

#else
        addi  sp, sp, 76
  e4:	dec01304 	addi	sp,sp,76

        /*
         * Return to the interrupted instruction.
         */

        eret
  e8:	ef80083a 	eret

000000ec <alt_irq_handler>:
 * instruction is present if the macro ALT_CI_INTERRUPT_VECTOR defined.
 */

void alt_irq_handler (void) __attribute__ ((section (".exceptions")));
void alt_irq_handler (void)
{
  ec:	defff904 	addi	sp,sp,-28
  f0:	dfc00615 	stw	ra,24(sp)
  f4:	df000515 	stw	fp,20(sp)
  f8:	df000504 	addi	fp,sp,20
  
  /*
   * Notify the operating system that we are at interrupt level.
   */ 
  
  ALT_OS_INT_ENTER();
  fc:	000107c0 	call	107c <OSIntEnter>
#ifndef NIOS2_EIC_PRESENT
static ALT_INLINE alt_u32 ALT_ALWAYS_INLINE alt_irq_pending (void)
{
  alt_u32 active;

  NIOS2_READ_IPENDING (active);
 100:	0005313a 	rdctl	r2,ipending
 104:	e0bffc15 	stw	r2,-16(fp)

  return active;
 108:	e0bffc17 	ldw	r2,-16(fp)
   * Consider the case where the high priority interupt is asserted during
   * the interrupt entry sequence for a lower priority interrupt to see why
   * this is the case.
   */

  active = alt_irq_pending ();
 10c:	e0bfff15 	stw	r2,-4(fp)

  do
  {
    i = 0;
 110:	e03ffd15 	stw	zero,-12(fp)
    mask = 1;
 114:	00800044 	movi	r2,1
 118:	e0bffe15 	stw	r2,-8(fp)
     * called to clear the interrupt condition.
     */

    do
    {
      if (active & mask)
 11c:	e0ffff17 	ldw	r3,-4(fp)
 120:	e0bffe17 	ldw	r2,-8(fp)
 124:	1884703a 	and	r2,r3,r2
 128:	1005003a 	cmpeq	r2,r2,zero
 12c:	1000161e 	bne	r2,zero,188 <alt_irq_handler+0x9c>
      { 
#ifdef ALT_ENHANCED_INTERRUPT_API_PRESENT
        alt_irq[i].handler(alt_irq[i].context); 
 130:	e0bffd17 	ldw	r2,-12(fp)
 134:	00c000b4 	movhi	r3,2
 138:	18ef8404 	addi	r3,r3,-16880
 13c:	100490fa 	slli	r2,r2,3
 140:	10c5883a 	add	r2,r2,r3
 144:	11400017 	ldw	r5,0(r2)
 148:	e0bffd17 	ldw	r2,-12(fp)
 14c:	00c000b4 	movhi	r3,2
 150:	18ef8404 	addi	r3,r3,-16880
 154:	100490fa 	slli	r2,r2,3
 158:	10c5883a 	add	r2,r2,r3
 15c:	10800104 	addi	r2,r2,4
 160:	11000017 	ldw	r4,0(r2)
 164:	283ee83a 	callr	r5
#ifndef NIOS2_EIC_PRESENT
static ALT_INLINE alt_u32 ALT_ALWAYS_INLINE alt_irq_pending (void)
{
  alt_u32 active;

  NIOS2_READ_IPENDING (active);
 168:	0005313a 	rdctl	r2,ipending
 16c:	e0bffb15 	stw	r2,-20(fp)

  return active;
 170:	e0bffb17 	ldw	r2,-20(fp)
      mask <<= 1;
      i++;

    } while (1);

    active = alt_irq_pending ();
 174:	e0bfff15 	stw	r2,-4(fp)
    
  } while (active);
 178:	e0bfff17 	ldw	r2,-4(fp)
 17c:	1004c03a 	cmpne	r2,r2,zero
 180:	103fe31e 	bne	r2,zero,110 <alt_irq_handler+0x24>
 184:	00000706 	br	1a4 <alt_irq_handler+0xb8>
#else
        alt_irq[i].handler(alt_irq[i].context, i); 
#endif
        break;
      }
      mask <<= 1;
 188:	e0bffe17 	ldw	r2,-8(fp)
 18c:	1085883a 	add	r2,r2,r2
 190:	e0bffe15 	stw	r2,-8(fp)
      i++;
 194:	e0bffd17 	ldw	r2,-12(fp)
 198:	10800044 	addi	r2,r2,1
 19c:	e0bffd15 	stw	r2,-12(fp)

    } while (1);
 1a0:	003fde06 	br	11c <alt_irq_handler+0x30>

  /*
   * Notify the operating system that interrupt processing is complete.
   */ 

  ALT_OS_INT_EXIT();
 1a4:	00010f80 	call	10f8 <OSIntExit>
}
 1a8:	e037883a 	mov	sp,fp
 1ac:	dfc00117 	ldw	ra,4(sp)
 1b0:	df000017 	ldw	fp,0(sp)
 1b4:	dec00204 	addi	sp,sp,8
 1b8:	f800283a 	ret

Disassembly of section .text:

000001bc <_start>:
#if (NIOS2_NUM_OF_SHADOW_REG_SETS == 0)    
    /*
     * Now that the caches are initialized, set up the stack pointer.
     * The value provided by the linker is assumed to be correctly aligned.
     */
    movhi sp, %hi(__alt_stack_pointer)
     1bc:	06c08034 	movhi	sp,512
    ori sp, sp, %lo(__alt_stack_pointer)
     1c0:	dec00014 	ori	sp,sp,0

    /* Set up the global pointer. */
    movhi gp, %hi(_gp)
     1c4:	06800074 	movhi	gp,1
    ori gp, gp, %lo(_gp)
     1c8:	d6a2af14 	ori	gp,gp,35516
 */
#ifndef ALT_SIM_OPTIMIZE
    /* Log that the BSS is about to be cleared. */
    ALT_LOG_PUTS(alt_log_msg_bss)

    movhi r2, %hi(__bss_start)
     1cc:	00800074 	movhi	r2,1
    ori r2, r2, %lo(__bss_start)
     1d0:	1082db14 	ori	r2,r2,2924

    movhi r3, %hi(__bss_end)
     1d4:	00c00074 	movhi	r3,1
    ori r3, r3, %lo(__bss_end)
     1d8:	18f02814 	ori	r3,r3,49312

    beq r2, r3, 1f
     1dc:	10c00326 	beq	r2,r3,1ec <_start+0x30>

0:
    stw zero, (r2)
     1e0:	10000015 	stw	zero,0(r2)
    addi r2, r2, 4
     1e4:	10800104 	addi	r2,r2,4
    bltu r2, r3, 0b
     1e8:	10fffd36 	bltu	r2,r3,1e0 <_start+0x24>

    /* Log that alt_main is about to be called. */
    ALT_LOG_PUTS(alt_log_msg_alt_main)

    /* Call the C entry point. It should never return. */
    call alt_main
     1ec:	00003580 	call	358 <alt_main>

000001f0 <alt_after_alt_main>:

    /* Wait in infinite loop in case alt_main does return. */
alt_after_alt_main:
    br alt_after_alt_main
     1f0:	003fff06 	br	1f0 <alt_after_alt_main>

000001f4 <task1>:
#define   N_TASK 8

OS_STK TaskStk[N_TASK][1024];

/* Prints "Hello World" and sleeps for three seconds */
void task1(void* pdata) {
     1f4:	defffb04 	addi	sp,sp,-20
     1f8:	dfc00415 	stw	ra,16(sp)
     1fc:	df000315 	stw	fp,12(sp)
     200:	df000304 	addi	fp,sp,12
     204:	e13fff15 	stw	r4,-4(fp)
	int i = (int) pdata;
     208:	e0bfff17 	ldw	r2,-4(fp)
     20c:	e0bffe15 	stw	r2,-8(fp)
	unsigned char led;
	while (1) {
		led = IORD(LED_BASE,0);
     210:	00808074 	movhi	r2,513
     214:	10a8f004 	addi	r2,r2,-23616
     218:	10800037 	ldwio	r2,0(r2)
     21c:	e0bffd05 	stb	r2,-12(fp)
		led = 1 << i | led;
     220:	00c00044 	movi	r3,1
     224:	e0bffe17 	ldw	r2,-8(fp)
     228:	1884983a 	sll	r2,r3,r2
     22c:	1007883a 	mov	r3,r2
     230:	e0bffd03 	ldbu	r2,-12(fp)
     234:	1884b03a 	or	r2,r3,r2
     238:	e0bffd05 	stb	r2,-12(fp)
		IOWR(LED_BASE, 0, led);
     23c:	e0fffd03 	ldbu	r3,-12(fp)
     240:	00808074 	movhi	r2,513
     244:	10a8f004 	addi	r2,r2,-23616
     248:	10c00035 	stwio	r3,0(r2)
		OSTimeDlyHMSM(0, 0, i + 1, 0);
     24c:	e0bffe17 	ldw	r2,-8(fp)
     250:	10800044 	addi	r2,r2,1
     254:	11803fcc 	andi	r6,r2,255
     258:	0009883a 	mov	r4,zero
     25c:	000b883a 	mov	r5,zero
     260:	000f883a 	mov	r7,zero
     264:	00085840 	call	8584 <OSTimeDlyHMSM>
		led = IORD(LED_BASE,0);
     268:	00808074 	movhi	r2,513
     26c:	10a8f004 	addi	r2,r2,-23616
     270:	10800037 	ldwio	r2,0(r2)
     274:	e0bffd05 	stb	r2,-12(fp)
		led = ~(1 << i) & led;
     278:	00c00044 	movi	r3,1
     27c:	e0bffe17 	ldw	r2,-8(fp)
     280:	1884983a 	sll	r2,r3,r2
     284:	0084303a 	nor	r2,zero,r2
     288:	1007883a 	mov	r3,r2
     28c:	e0bffd03 	ldbu	r2,-12(fp)
     290:	1884703a 	and	r2,r3,r2
     294:	e0bffd05 	stb	r2,-12(fp)
		IOWR(LED_BASE, 0, led);
     298:	e0fffd03 	ldbu	r3,-12(fp)
     29c:	00808074 	movhi	r2,513
     2a0:	10a8f004 	addi	r2,r2,-23616
     2a4:	10c00035 	stwio	r3,0(r2)
		OSTimeDlyHMSM(0, 0, i + 1, 0);
     2a8:	e0bffe17 	ldw	r2,-8(fp)
     2ac:	10800044 	addi	r2,r2,1
     2b0:	11803fcc 	andi	r6,r2,255
     2b4:	0009883a 	mov	r4,zero
     2b8:	000b883a 	mov	r5,zero
     2bc:	000f883a 	mov	r7,zero
     2c0:	00085840 	call	8584 <OSTimeDlyHMSM>

	}
     2c4:	003fd206 	br	210 <task1+0x1c>

000002c8 <main>:
}

int main(void) {
     2c8:	defffd04 	addi	sp,sp,-12
     2cc:	dfc00215 	stw	ra,8(sp)
     2d0:	df000115 	stw	fp,4(sp)
     2d4:	df000104 	addi	fp,sp,4
	OSInit();
     2d8:	00010280 	call	1028 <OSInit>
	int i;
	for (i = 0; i < N_TASK; i++)
     2dc:	e03fff15 	stw	zero,-4(fp)
     2e0:	00001306 	br	330 <main+0x68>
		OSTaskCreate(task1, (void *) i, (void *) &TaskStk[i][1024], N_TASK - i);
     2e4:	e17fff17 	ldw	r5,-4(fp)
     2e8:	e0bfff17 	ldw	r2,-4(fp)
     2ec:	1004933a 	slli	r2,r2,12
     2f0:	1007883a 	mov	r3,r2
     2f4:	00800074 	movhi	r2,1
     2f8:	1082fb04 	addi	r2,r2,3052
     2fc:	10840004 	addi	r2,r2,4096
     300:	188d883a 	add	r6,r3,r2
     304:	e0bfff17 	ldw	r2,-4(fp)
     308:	1007883a 	mov	r3,r2
     30c:	00800204 	movi	r2,8
     310:	10c5c83a 	sub	r2,r2,r3
     314:	11c03fcc 	andi	r7,r2,255
     318:	01000034 	movhi	r4,0
     31c:	21007d04 	addi	r4,r4,500
     320:	0006f6c0 	call	6f6c <OSTaskCreate>
}

int main(void) {
	OSInit();
	int i;
	for (i = 0; i < N_TASK; i++)
     324:	e0bfff17 	ldw	r2,-4(fp)
     328:	10800044 	addi	r2,r2,1
     32c:	e0bfff15 	stw	r2,-4(fp)
     330:	e0bfff17 	ldw	r2,-4(fp)
     334:	10800210 	cmplti	r2,r2,8
     338:	103fea1e 	bne	r2,zero,2e4 <main+0x1c>
		OSTaskCreate(task1, (void *) i, (void *) &TaskStk[i][1024], N_TASK - i);
	OSStart();
     33c:	00013680 	call	1368 <OSStart>
	return 0;
     340:	0005883a 	mov	r2,zero
}
     344:	e037883a 	mov	sp,fp
     348:	dfc00117 	ldw	ra,4(sp)
     34c:	df000017 	ldw	fp,0(sp)
     350:	dec00204 	addi	sp,sp,8
     354:	f800283a 	ret

00000358 <alt_main>:
 * devices/filesystems/components in the system; and call the entry point for
 * the users application, i.e. main().
 */

void alt_main (void)
{
     358:	defffb04 	addi	sp,sp,-20
     35c:	dfc00415 	stw	ra,16(sp)
     360:	df000315 	stw	fp,12(sp)
     364:	df000304 	addi	fp,sp,12
#endif

  /* ALT LOG - please see HAL/sys/alt_log_printf.h for details */
  ALT_LOG_PRINT_BOOT("[alt_main.c] Entering alt_main, calling alt_irq_init.\r\n");
  /* Initialize the interrupt controller. */
  alt_irq_init (NULL);
     368:	0009883a 	mov	r4,zero
     36c:	0008ab40 	call	8ab4 <alt_irq_init>

  /* Initialize the operating system */
  ALT_LOG_PRINT_BOOT("[alt_main.c] Done alt_irq_init, calling alt_os_init.\r\n");
  ALT_OS_INIT();
     370:	00010280 	call	1028 <OSInit>
     374:	01000044 	movi	r4,1
     378:	0005ef00 	call	5ef0 <OSSemCreate>
     37c:	1007883a 	mov	r3,r2
     380:	00800074 	movhi	r2,1
     384:	1082df04 	addi	r2,r2,2940
     388:	10c00015 	stw	r3,0(r2)
     38c:	01000044 	movi	r4,1
     390:	0005ef00 	call	5ef0 <OSSemCreate>
     394:	1007883a 	mov	r3,r2
     398:	00800074 	movhi	r2,1
     39c:	1082e104 	addi	r2,r2,2948
     3a0:	10c00015 	stw	r3,0(r2)
     3a4:	00800074 	movhi	r2,1
     3a8:	1082f604 	addi	r2,r2,3032
     3ac:	e0bffd15 	stw	r2,-12(fp)
     3b0:	00800044 	movi	r2,1
     3b4:	e0bffe0d 	sth	r2,-8(fp)
 */

static ALT_INLINE int ALT_ALWAYS_INLINE alt_sem_create (OS_EVENT** sem, 
              INT16U value)
{
  *sem = OSSemCreate (value);
     3b8:	e13ffe0b 	ldhu	r4,-8(fp)
     3bc:	0005ef00 	call	5ef0 <OSSemCreate>
     3c0:	1007883a 	mov	r3,r2
     3c4:	e0bffd17 	ldw	r2,-12(fp)
     3c8:	10c00015 	stw	r3,0(r2)
  ALT_LOG_PRINT_BOOT("[alt_main.c] Done OS Init, calling alt_sem_create.\r\n");
  ALT_SEM_CREATE (&alt_fd_list_lock, 1);

  /* Initialize the device drivers/software components. */
  ALT_LOG_PRINT_BOOT("[alt_main.c] Calling alt_sys_init.\r\n");
  alt_sys_init();
     3cc:	0008ae80 	call	8ae8 <alt_sys_init>
   * devices be present (not equal to /dev/null) and if direct drivers
   * aren't being used.
   */

    ALT_LOG_PRINT_BOOT("[alt_main.c] Redirecting IO.\r\n");
    alt_io_redirect(ALT_STDOUT, ALT_STDIN, ALT_STDERR);
     3d0:	01000074 	movhi	r4,1
     3d4:	213b3504 	addi	r4,r4,-4908
     3d8:	01400074 	movhi	r5,1
     3dc:	297b3504 	addi	r5,r5,-4908
     3e0:	01800074 	movhi	r6,1
     3e4:	31bb3504 	addi	r6,r6,-4908
     3e8:	000c0a80 	call	c0a8 <alt_io_redirect>
  /* 
   * Call the C++ constructors 
   */

  ALT_LOG_PRINT_BOOT("[alt_main.c] Calling C++ constructors.\r\n");
  _do_ctors ();
     3ec:	000bb6c0 	call	bb6c <_do_ctors>
   * redefined as _exit()). This is in the interest of reducing code footprint,
   * in that the atexit() overhead is removed when it's not needed.
   */

  ALT_LOG_PRINT_BOOT("[alt_main.c] Calling atexit.\r\n");
  atexit (_do_dtors);
     3f0:	01000074 	movhi	r4,1
     3f4:	212ef404 	addi	r4,r4,-17456
     3f8:	000d01c0 	call	d01c <atexit>
  ALT_LOG_PRINT_BOOT("[alt_main.c] Calling main.\r\n");

#ifdef ALT_NO_EXIT
  main (alt_argc, alt_argv, alt_envp);
#else
  result = main (alt_argc, alt_argv, alt_envp);
     3fc:	d1202c17 	ldw	r4,-32592(gp)
     400:	d1602d17 	ldw	r5,-32588(gp)
     404:	d1a02e17 	ldw	r6,-32584(gp)
     408:	00002c80 	call	2c8 <main>
     40c:	e0bfff15 	stw	r2,-4(fp)
  close(STDOUT_FILENO);
     410:	01000044 	movi	r4,1
     414:	000b8cc0 	call	b8cc <close>
  exit (result);
     418:	e13fff17 	ldw	r4,-4(fp)
     41c:	000d0300 	call	d030 <exit>

00000420 <__env_lock>:
/*
 *
 */

void __env_lock ( struct _reent *_r )
{
     420:	deffdf04 	addi	sp,sp,-132
     424:	dfc02015 	stw	ra,128(sp)
     428:	df001f15 	stw	fp,124(sp)
     42c:	df001f04 	addi	fp,sp,124
     430:	e13fff15 	stw	r4,-4(fp)
  INT8U err;
  int id;

  /* use our priority as a task id */

  err = OSTaskQuery( OS_PRIO_SELF, &tcb );
     434:	e17fe204 	addi	r5,fp,-120
     438:	01003fc4 	movi	r4,255
     43c:	00082780 	call	8278 <OSTaskQuery>
     440:	e0bffe85 	stb	r2,-6(fp)
  if (err != OS_NO_ERR)
     444:	e0bffe83 	ldbu	r2,-6(fp)
     448:	10803fcc 	andi	r2,r2,255
     44c:	1004c03a 	cmpne	r2,r2,zero
     450:	1000191e 	bne	r2,zero,4b8 <__env_lock+0x98>
    return;

  id = tcb.OSTCBPrio;
     454:	e0bfee83 	ldbu	r2,-70(fp)
     458:	10803fcc 	andi	r2,r2,255
     45c:	e0bfe115 	stw	r2,-124(fp)
   
  /* see if we own the environment already */

  OSSemQuery( alt_envsem, &semdata );
     460:	d1203017 	ldw	r4,-32576(gp)
     464:	e17ffd04 	addi	r5,fp,-12
     468:	00067c40 	call	67c4 <OSSemQuery>
  if( semdata.OSEventGrp && id == lockid ) 
     46c:	e0bffe43 	ldbu	r2,-7(fp)
     470:	10803fcc 	andi	r2,r2,255
     474:	1005003a 	cmpeq	r2,r2,zero
     478:	1000071e 	bne	r2,zero,498 <__env_lock+0x78>
     47c:	d0e00017 	ldw	r3,-32768(gp)
     480:	e0bfe117 	ldw	r2,-124(fp)
     484:	10c0041e 	bne	r2,r3,498 <__env_lock+0x78>
  {
    /* we do; just count the recursion */

    locks++;
     488:	d0a02f17 	ldw	r2,-32580(gp)
     48c:	10800044 	addi	r2,r2,1
     490:	d0a02f15 	stw	r2,-32580(gp)
  id = tcb.OSTCBPrio;
   
  /* see if we own the environment already */

  OSSemQuery( alt_envsem, &semdata );
  if( semdata.OSEventGrp && id == lockid ) 
     494:	00000806 	br	4b8 <__env_lock+0x98>
  }
  else 
  {
    /* wait on the other task to yield, then claim ownership */

    OSSemPend( alt_envsem, 0, &err );
     498:	d1203017 	ldw	r4,-32576(gp)
     49c:	e1bffe84 	addi	r6,fp,-6
     4a0:	000b883a 	mov	r5,zero
     4a4:	00062a40 	call	62a4 <OSSemPend>
    locks  = 1;
     4a8:	00800044 	movi	r2,1
     4ac:	d0a02f15 	stw	r2,-32580(gp)
    lockid = id;
     4b0:	e0bfe117 	ldw	r2,-124(fp)
     4b4:	d0a00015 	stw	r2,-32768(gp)
  }

#endif /* OS_THREAD_SAFE_NEWLIB */
  return;
}
     4b8:	e037883a 	mov	sp,fp
     4bc:	dfc00117 	ldw	ra,4(sp)
     4c0:	df000017 	ldw	fp,0(sp)
     4c4:	dec00204 	addi	sp,sp,8
     4c8:	f800283a 	ret

000004cc <__env_unlock>:
/*
 *
 */

void __env_unlock ( struct _reent *_r )
{
     4cc:	defffd04 	addi	sp,sp,-12
     4d0:	dfc00215 	stw	ra,8(sp)
     4d4:	df000115 	stw	fp,4(sp)
     4d8:	df000104 	addi	fp,sp,4
     4dc:	e13fff15 	stw	r4,-4(fp)
#if OS_THREAD_SAFE_NEWLIB
  if (locks == 0)
     4e0:	d0a02f17 	ldw	r2,-32580(gp)
     4e4:	1005003a 	cmpeq	r2,r2,zero
     4e8:	10000a1e 	bne	r2,zero,514 <__env_unlock+0x48>
   /* 
    * release the environment once the number of locks == the number 
    * of unlocks 
    */

  if( (--locks) == 0 ) 
     4ec:	d0a02f17 	ldw	r2,-32580(gp)
     4f0:	10bfffc4 	addi	r2,r2,-1
     4f4:	d0a02f15 	stw	r2,-32580(gp)
     4f8:	d0a02f17 	ldw	r2,-32580(gp)
     4fc:	1004c03a 	cmpne	r2,r2,zero
     500:	1000041e 	bne	r2,zero,514 <__env_unlock+0x48>
  {
    lockid = -1;
     504:	00bfffc4 	movi	r2,-1
     508:	d0a00015 	stw	r2,-32768(gp)
    OSSemPost( alt_envsem );
     50c:	d1203017 	ldw	r4,-32576(gp)
     510:	000669c0 	call	669c <OSSemPost>
  }
#endif /* OS_THREAD_SAFE_NEWLIB */
}
     514:	e037883a 	mov	sp,fp
     518:	dfc00117 	ldw	ra,4(sp)
     51c:	df000017 	ldw	fp,0(sp)
     520:	dec00204 	addi	sp,sp,8
     524:	f800283a 	ret

00000528 <__malloc_lock>:
/*
 *
 */

void __malloc_lock ( struct _reent *_r )
{
     528:	deffdb04 	addi	sp,sp,-148
     52c:	dfc02415 	stw	ra,144(sp)
     530:	df002315 	stw	fp,140(sp)
     534:	df002304 	addi	fp,sp,140
     538:	e13fff15 	stw	r4,-4(fp)
  OS_TCB tcb;
  OS_SEM_DATA semdata;
  INT8U err;
  int id;
#if OS_CRITICAL_METHOD == 3                      /* Allocate storage for CPU status register           */
    OS_CPU_SR  cpu_sr = 0;
     53c:	e03fe015 	stw	zero,-128(fp)
#endif  
  
  if (OSRunning != OS_TRUE)
     540:	00800074 	movhi	r2,1
     544:	1082e244 	addi	r2,r2,2953
     548:	10800003 	ldbu	r2,0(r2)
     54c:	10803fcc 	andi	r2,r2,255
     550:	10800058 	cmpnei	r2,r2,1
     554:	1000311e 	bne	r2,zero,61c <__malloc_lock+0xf4>
      return;

  /* use our priority as a task id */

  err = OSTaskQuery( OS_PRIO_SELF, &tcb );
     558:	e17fe204 	addi	r5,fp,-120
     55c:	01003fc4 	movi	r4,255
     560:	00082780 	call	8278 <OSTaskQuery>
     564:	e0bffe85 	stb	r2,-6(fp)
  if (err != OS_NO_ERR)
     568:	e0bffe83 	ldbu	r2,-6(fp)
     56c:	10803fcc 	andi	r2,r2,255
     570:	1004c03a 	cmpne	r2,r2,zero
     574:	1000291e 	bne	r2,zero,61c <__malloc_lock+0xf4>
    return;

  id = tcb.OSTCBPrio;
     578:	e0bfee83 	ldbu	r2,-70(fp)
     57c:	10803fcc 	andi	r2,r2,255
     580:	e0bfe115 	stw	r2,-124(fp)
   
  /* see if we own the heap already */

  OSSemQuery( alt_heapsem, &semdata );
     584:	d1203217 	ldw	r4,-32568(gp)
     588:	e17ffd04 	addi	r5,fp,-12
     58c:	00067c40 	call	67c4 <OSSemQuery>
static ALT_INLINE alt_irq_context ALT_ALWAYS_INLINE 
       alt_irq_disable_all (void)
{
  alt_irq_context context;

  NIOS2_READ_STATUS (context);
     590:	0005303a 	rdctl	r2,status
     594:	e0bfdf15 	stw	r2,-132(fp)

  NIOS2_WRITE_STATUS (context & ~NIOS2_STATUS_PIE_MSK);
     598:	e0ffdf17 	ldw	r3,-132(fp)
     59c:	00bfff84 	movi	r2,-2
     5a0:	1884703a 	and	r2,r3,r2
     5a4:	1001703a 	wrctl	status,r2
  
  return context;
     5a8:	e0bfdf17 	ldw	r2,-132(fp)
  
  OS_ENTER_CRITICAL();
     5ac:	e0bfe015 	stw	r2,-128(fp)

  if( !semdata.OSCnt && id == lockid ) 
     5b0:	e0bffd0b 	ldhu	r2,-12(fp)
     5b4:	10bfffcc 	andi	r2,r2,65535
     5b8:	1004c03a 	cmpne	r2,r2,zero
     5bc:	10000b1e 	bne	r2,zero,5ec <__malloc_lock+0xc4>
     5c0:	d0e00117 	ldw	r3,-32764(gp)
     5c4:	e0bfe117 	ldw	r2,-124(fp)
     5c8:	10c0081e 	bne	r2,r3,5ec <__malloc_lock+0xc4>
  {
    /* we do; just count the recursion */
    locks++;
     5cc:	d0a03117 	ldw	r2,-32572(gp)
     5d0:	10800044 	addi	r2,r2,1
     5d4:	d0a03115 	stw	r2,-32572(gp)
     5d8:	e0bfe017 	ldw	r2,-128(fp)
     5dc:	e0bfde15 	stw	r2,-136(fp)
  status &= ~NIOS2_STATUS_PIE_MSK;
  status |= (context & NIOS2_STATUS_PIE_MSK);
  
  NIOS2_WRITE_STATUS (status);
#else
  NIOS2_WRITE_STATUS (context);
     5e0:	e0bfde17 	ldw	r2,-136(fp)
     5e4:	1001703a 	wrctl	status,r2

  OSSemQuery( alt_heapsem, &semdata );
  
  OS_ENTER_CRITICAL();

  if( !semdata.OSCnt && id == lockid ) 
     5e8:	00000c06 	br	61c <__malloc_lock+0xf4>
     5ec:	e0bfe017 	ldw	r2,-128(fp)
     5f0:	e0bfdd15 	stw	r2,-140(fp)
     5f4:	e0bfdd17 	ldw	r2,-140(fp)
     5f8:	1001703a 	wrctl	status,r2
  else 
  {
    /* wait on the other task to yield the heap, then claim ownership of it */
    OS_EXIT_CRITICAL();

    OSSemPend( alt_heapsem, 0, &err );
     5fc:	d1203217 	ldw	r4,-32568(gp)
     600:	e1bffe84 	addi	r6,fp,-6
     604:	000b883a 	mov	r5,zero
     608:	00062a40 	call	62a4 <OSSemPend>
    locks  = 1;
     60c:	00800044 	movi	r2,1
     610:	d0a03115 	stw	r2,-32572(gp)
    lockid = id;
     614:	e0bfe117 	ldw	r2,-124(fp)
     618:	d0a00115 	stw	r2,-32764(gp)
  }

#endif /* OS_THREAD_SAFE_NEWLIB */
  return;
}
     61c:	e037883a 	mov	sp,fp
     620:	dfc00117 	ldw	ra,4(sp)
     624:	df000017 	ldw	fp,0(sp)
     628:	dec00204 	addi	sp,sp,8
     62c:	f800283a 	ret

00000630 <__malloc_unlock>:
/*
 *
 */

void __malloc_unlock ( struct _reent *_r )
{
     630:	defff804 	addi	sp,sp,-32
     634:	dfc00715 	stw	ra,28(sp)
     638:	df000615 	stw	fp,24(sp)
     63c:	df000604 	addi	fp,sp,24
     640:	e13fff15 	stw	r4,-4(fp)
#if OS_THREAD_SAFE_NEWLIB

#if OS_CRITICAL_METHOD == 3                      /* Allocate storage for CPU status register           */
    OS_CPU_SR  cpu_sr = 0;
     644:	e03ffe15 	stw	zero,-8(fp)
#endif 

  if (OSRunning != OS_TRUE)
     648:	00800074 	movhi	r2,1
     64c:	1082e244 	addi	r2,r2,2953
     650:	10800003 	ldbu	r2,0(r2)
     654:	10803fcc 	andi	r2,r2,255
     658:	10800058 	cmpnei	r2,r2,1
     65c:	1000231e 	bne	r2,zero,6ec <__malloc_unlock+0xbc>
static ALT_INLINE alt_irq_context ALT_ALWAYS_INLINE 
       alt_irq_disable_all (void)
{
  alt_irq_context context;

  NIOS2_READ_STATUS (context);
     660:	0005303a 	rdctl	r2,status
     664:	e0bffd15 	stw	r2,-12(fp)

  NIOS2_WRITE_STATUS (context & ~NIOS2_STATUS_PIE_MSK);
     668:	e0fffd17 	ldw	r3,-12(fp)
     66c:	00bfff84 	movi	r2,-2
     670:	1884703a 	and	r2,r3,r2
     674:	1001703a 	wrctl	status,r2
  
  return context;
     678:	e0bffd17 	ldw	r2,-12(fp)
      return;

  OS_ENTER_CRITICAL();
     67c:	e0bffe15 	stw	r2,-8(fp)
  if (locks == 0)
     680:	d0a03117 	ldw	r2,-32572(gp)
     684:	1004c03a 	cmpne	r2,r2,zero
     688:	1000051e 	bne	r2,zero,6a0 <__malloc_unlock+0x70>
     68c:	e0bffe17 	ldw	r2,-8(fp)
     690:	e0bffc15 	stw	r2,-16(fp)
  status &= ~NIOS2_STATUS_PIE_MSK;
  status |= (context & NIOS2_STATUS_PIE_MSK);
  
  NIOS2_WRITE_STATUS (status);
#else
  NIOS2_WRITE_STATUS (context);
     694:	e0bffc17 	ldw	r2,-16(fp)
     698:	1001703a 	wrctl	status,r2
  {
      OS_EXIT_CRITICAL();
      return;
     69c:	00001306 	br	6ec <__malloc_unlock+0xbc>
  }

  /* release the heap once the number of locks == the number of unlocks */
  if( (--locks) == 0 ) 
     6a0:	d0a03117 	ldw	r2,-32572(gp)
     6a4:	10bfffc4 	addi	r2,r2,-1
     6a8:	d0a03115 	stw	r2,-32572(gp)
     6ac:	d0a03117 	ldw	r2,-32572(gp)
     6b0:	1004c03a 	cmpne	r2,r2,zero
     6b4:	1000091e 	bne	r2,zero,6dc <__malloc_unlock+0xac>
  {
    lockid = -1;
     6b8:	00bfffc4 	movi	r2,-1
     6bc:	d0a00115 	stw	r2,-32764(gp)
     6c0:	e0bffe17 	ldw	r2,-8(fp)
     6c4:	e0bffb15 	stw	r2,-20(fp)
     6c8:	e0bffb17 	ldw	r2,-20(fp)
     6cc:	1001703a 	wrctl	status,r2
    OS_EXIT_CRITICAL();
    OSSemPost( alt_heapsem );
     6d0:	d1203217 	ldw	r4,-32568(gp)
     6d4:	000669c0 	call	669c <OSSemPost>
     6d8:	00000406 	br	6ec <__malloc_unlock+0xbc>
     6dc:	e0bffe17 	ldw	r2,-8(fp)
     6e0:	e0bffa15 	stw	r2,-24(fp)
     6e4:	e0bffa17 	ldw	r2,-24(fp)
     6e8:	1001703a 	wrctl	status,r2
  {
      OS_EXIT_CRITICAL();
  }
  
#endif /* OS_THREAD_SAFE_NEWLIB */
}
     6ec:	e037883a 	mov	sp,fp
     6f0:	dfc00117 	ldw	ra,4(sp)
     6f4:	df000017 	ldw	fp,0(sp)
     6f8:	dec00204 	addi	sp,sp,8
     6fc:	f800283a 	ret

00000700 <OSEventNameGet>:
*********************************************************************************************************
*/

#if (OS_EVENT_EN) && (OS_EVENT_NAME_SIZE > 1)
INT8U  OSEventNameGet (OS_EVENT *pevent, INT8U *pname, INT8U *perr)
{
     700:	defff604 	addi	sp,sp,-40
     704:	dfc00915 	stw	ra,36(sp)
     708:	df000815 	stw	fp,32(sp)
     70c:	df000804 	addi	fp,sp,32
     710:	e13ffc15 	stw	r4,-16(fp)
     714:	e17ffd15 	stw	r5,-12(fp)
     718:	e1bffe15 	stw	r6,-8(fp)
    INT8U      len;
#if OS_CRITICAL_METHOD == 3                      /* Allocate storage for CPU status register           */
    OS_CPU_SR  cpu_sr = 0;
     71c:	e03ffa15 	stw	zero,-24(fp)
#endif



#if OS_ARG_CHK_EN > 0
    if (perr == (INT8U *)0) {                    /* Validate 'perr'                                    */
     720:	e0bffe17 	ldw	r2,-8(fp)
     724:	1004c03a 	cmpne	r2,r2,zero
     728:	1000021e 	bne	r2,zero,734 <OSEventNameGet+0x34>
        return (0);
     72c:	e03fff15 	stw	zero,-4(fp)
     730:	00003906 	br	818 <OSEventNameGet+0x118>
    }
    if (pevent == (OS_EVENT *)0) {               /* Is 'pevent' a NULL pointer?                        */
     734:	e0bffc17 	ldw	r2,-16(fp)
     738:	1004c03a 	cmpne	r2,r2,zero
     73c:	1000051e 	bne	r2,zero,754 <OSEventNameGet+0x54>
        *perr = OS_ERR_PEVENT_NULL;
     740:	e0fffe17 	ldw	r3,-8(fp)
     744:	00800104 	movi	r2,4
     748:	18800005 	stb	r2,0(r3)
        return (0);
     74c:	e03fff15 	stw	zero,-4(fp)
     750:	00003106 	br	818 <OSEventNameGet+0x118>
    }
    if (pname == (INT8U *)0) {                   /* Is 'pname' a NULL pointer?                         */
     754:	e0bffd17 	ldw	r2,-12(fp)
     758:	1004c03a 	cmpne	r2,r2,zero
     75c:	1000051e 	bne	r2,zero,774 <OSEventNameGet+0x74>
        *perr = OS_ERR_PNAME_NULL;
     760:	e0fffe17 	ldw	r3,-8(fp)
     764:	00800304 	movi	r2,12
     768:	18800005 	stb	r2,0(r3)
        return (0);
     76c:	e03fff15 	stw	zero,-4(fp)
     770:	00002906 	br	818 <OSEventNameGet+0x118>
    }
#endif
    if (OSIntNesting > 0) {                      /* See if trying to call from an ISR                  */
     774:	d0a04103 	ldbu	r2,-32508(gp)
     778:	10803fcc 	andi	r2,r2,255
     77c:	1005003a 	cmpeq	r2,r2,zero
     780:	1000051e 	bne	r2,zero,798 <OSEventNameGet+0x98>
        *perr  = OS_ERR_NAME_GET_ISR;
     784:	e0fffe17 	ldw	r3,-8(fp)
     788:	00800444 	movi	r2,17
     78c:	18800005 	stb	r2,0(r3)
        return (0);
     790:	e03fff15 	stw	zero,-4(fp)
     794:	00002006 	br	818 <OSEventNameGet+0x118>
    }
    switch (pevent->OSEventType) {
     798:	e0bffc17 	ldw	r2,-16(fp)
     79c:	10800003 	ldbu	r2,0(r2)
     7a0:	10803fcc 	andi	r2,r2,255
     7a4:	10bfffc4 	addi	r2,r2,-1
     7a8:	10800128 	cmpgeui	r2,r2,4
     7ac:	1000161e 	bne	r2,zero,808 <OSEventNameGet+0x108>
static ALT_INLINE alt_irq_context ALT_ALWAYS_INLINE 
       alt_irq_disable_all (void)
{
  alt_irq_context context;

  NIOS2_READ_STATUS (context);
     7b0:	0005303a 	rdctl	r2,status
     7b4:	e0bff915 	stw	r2,-28(fp)

  NIOS2_WRITE_STATUS (context & ~NIOS2_STATUS_PIE_MSK);
     7b8:	e0fff917 	ldw	r3,-28(fp)
     7bc:	00bfff84 	movi	r2,-2
     7c0:	1884703a 	and	r2,r3,r2
     7c4:	1001703a 	wrctl	status,r2
  
  return context;
     7c8:	e0bff917 	ldw	r2,-28(fp)

        default:
             *perr = OS_ERR_EVENT_TYPE;
             return (0);
    }
    OS_ENTER_CRITICAL();
     7cc:	e0bffa15 	stw	r2,-24(fp)
    len   = OS_StrCopy(pname, pevent->OSEventName);   /* Copy name from OS_EVENT                       */
     7d0:	e0bffc17 	ldw	r2,-16(fp)
     7d4:	11400384 	addi	r5,r2,14
     7d8:	e13ffd17 	ldw	r4,-12(fp)
     7dc:	00022840 	call	2284 <OS_StrCopy>
     7e0:	e0bffb05 	stb	r2,-20(fp)
     7e4:	e0bffa17 	ldw	r2,-24(fp)
     7e8:	e0bff815 	stw	r2,-32(fp)
  status &= ~NIOS2_STATUS_PIE_MSK;
  status |= (context & NIOS2_STATUS_PIE_MSK);
  
  NIOS2_WRITE_STATUS (status);
#else
  NIOS2_WRITE_STATUS (context);
     7ec:	e0bff817 	ldw	r2,-32(fp)
     7f0:	1001703a 	wrctl	status,r2
    OS_EXIT_CRITICAL();
    *perr = OS_ERR_NONE;
     7f4:	e0bffe17 	ldw	r2,-8(fp)
     7f8:	10000005 	stb	zero,0(r2)
    return (len);
     7fc:	e0bffb03 	ldbu	r2,-20(fp)
     800:	e0bfff15 	stw	r2,-4(fp)
     804:	00000406 	br	818 <OSEventNameGet+0x118>
        case OS_EVENT_TYPE_MBOX:
        case OS_EVENT_TYPE_Q:
             break;

        default:
             *perr = OS_ERR_EVENT_TYPE;
     808:	e0fffe17 	ldw	r3,-8(fp)
     80c:	00800044 	movi	r2,1
     810:	18800005 	stb	r2,0(r3)
             return (0);
     814:	e03fff15 	stw	zero,-4(fp)
     818:	e0bfff17 	ldw	r2,-4(fp)
    OS_ENTER_CRITICAL();
    len   = OS_StrCopy(pname, pevent->OSEventName);   /* Copy name from OS_EVENT                       */
    OS_EXIT_CRITICAL();
    *perr = OS_ERR_NONE;
    return (len);
}
     81c:	e037883a 	mov	sp,fp
     820:	dfc00117 	ldw	ra,4(sp)
     824:	df000017 	ldw	fp,0(sp)
     828:	dec00204 	addi	sp,sp,8
     82c:	f800283a 	ret

00000830 <OSEventNameSet>:
*********************************************************************************************************
*/

#if (OS_EVENT_EN) && (OS_EVENT_NAME_SIZE > 1)
void  OSEventNameSet (OS_EVENT *pevent, INT8U *pname, INT8U *perr)
{
     830:	defff604 	addi	sp,sp,-40
     834:	dfc00915 	stw	ra,36(sp)
     838:	df000815 	stw	fp,32(sp)
     83c:	df000804 	addi	fp,sp,32
     840:	e13ffd15 	stw	r4,-12(fp)
     844:	e17ffe15 	stw	r5,-8(fp)
     848:	e1bfff15 	stw	r6,-4(fp)
    INT8U      len;
#if OS_CRITICAL_METHOD == 3                      /* Allocate storage for CPU status register           */
    OS_CPU_SR  cpu_sr = 0;
     84c:	e03ffb15 	stw	zero,-20(fp)
#endif



#if OS_ARG_CHK_EN > 0
    if (perr == (INT8U *)0) {                    /* Validate 'perr'                                    */
     850:	e0bfff17 	ldw	r2,-4(fp)
     854:	1005003a 	cmpeq	r2,r2,zero
     858:	1000411e 	bne	r2,zero,960 <OSEventNameSet+0x130>
        return;
    }
    if (pevent == (OS_EVENT *)0) {               /* Is 'pevent' a NULL pointer?                        */
     85c:	e0bffd17 	ldw	r2,-12(fp)
     860:	1004c03a 	cmpne	r2,r2,zero
     864:	1000041e 	bne	r2,zero,878 <OSEventNameSet+0x48>
        *perr = OS_ERR_PEVENT_NULL;
     868:	e0ffff17 	ldw	r3,-4(fp)
     86c:	00800104 	movi	r2,4
     870:	18800005 	stb	r2,0(r3)
        return;
     874:	00003a06 	br	960 <OSEventNameSet+0x130>
    }
    if (pname == (INT8U *)0) {                   /* Is 'pname' a NULL pointer?                         */
     878:	e0bffe17 	ldw	r2,-8(fp)
     87c:	1004c03a 	cmpne	r2,r2,zero
     880:	1000041e 	bne	r2,zero,894 <OSEventNameSet+0x64>
        *perr = OS_ERR_PNAME_NULL;
     884:	e0ffff17 	ldw	r3,-4(fp)
     888:	00800304 	movi	r2,12
     88c:	18800005 	stb	r2,0(r3)
        return;
     890:	00003306 	br	960 <OSEventNameSet+0x130>
    }
#endif
    if (OSIntNesting > 0) {                      /* See if trying to call from an ISR                  */
     894:	d0a04103 	ldbu	r2,-32508(gp)
     898:	10803fcc 	andi	r2,r2,255
     89c:	1005003a 	cmpeq	r2,r2,zero
     8a0:	1000041e 	bne	r2,zero,8b4 <OSEventNameSet+0x84>
        *perr = OS_ERR_NAME_SET_ISR;
     8a4:	e0ffff17 	ldw	r3,-4(fp)
     8a8:	00800484 	movi	r2,18
     8ac:	18800005 	stb	r2,0(r3)
        return;
     8b0:	00002b06 	br	960 <OSEventNameSet+0x130>
    }
    switch (pevent->OSEventType) {
     8b4:	e0bffd17 	ldw	r2,-12(fp)
     8b8:	10800003 	ldbu	r2,0(r2)
     8bc:	10803fcc 	andi	r2,r2,255
     8c0:	10bfffc4 	addi	r2,r2,-1
     8c4:	10800128 	cmpgeui	r2,r2,4
     8c8:	10000f1e 	bne	r2,zero,908 <OSEventNameSet+0xd8>
static ALT_INLINE alt_irq_context ALT_ALWAYS_INLINE 
       alt_irq_disable_all (void)
{
  alt_irq_context context;

  NIOS2_READ_STATUS (context);
     8cc:	0005303a 	rdctl	r2,status
     8d0:	e0bffa15 	stw	r2,-24(fp)

  NIOS2_WRITE_STATUS (context & ~NIOS2_STATUS_PIE_MSK);
     8d4:	e0fffa17 	ldw	r3,-24(fp)
     8d8:	00bfff84 	movi	r2,-2
     8dc:	1884703a 	and	r2,r3,r2
     8e0:	1001703a 	wrctl	status,r2
  
  return context;
     8e4:	e0bffa17 	ldw	r2,-24(fp)

        default:
             *perr = OS_ERR_EVENT_TYPE;
             return;
    }
    OS_ENTER_CRITICAL();
     8e8:	e0bffb15 	stw	r2,-20(fp)
    len = OS_StrLen(pname);                           /* Can we fit the string in the storage area?    */
     8ec:	e13ffe17 	ldw	r4,-8(fp)
     8f0:	00023040 	call	2304 <OS_StrLen>
     8f4:	e0bffc05 	stb	r2,-16(fp)
    if (len > (OS_EVENT_NAME_SIZE - 1)) {             /* No                                            */
     8f8:	e0bffc03 	ldbu	r2,-16(fp)
     8fc:	10800828 	cmpgeui	r2,r2,32
     900:	1000051e 	bne	r2,zero,918 <OSEventNameSet+0xe8>
     904:	00000c06 	br	938 <OSEventNameSet+0x108>
        case OS_EVENT_TYPE_MBOX:
        case OS_EVENT_TYPE_Q:
             break;

        default:
             *perr = OS_ERR_EVENT_TYPE;
     908:	e0ffff17 	ldw	r3,-4(fp)
     90c:	00800044 	movi	r2,1
     910:	18800005 	stb	r2,0(r3)
             return;
     914:	00001206 	br	960 <OSEventNameSet+0x130>
     918:	e0bffb17 	ldw	r2,-20(fp)
     91c:	e0bff915 	stw	r2,-28(fp)
  status &= ~NIOS2_STATUS_PIE_MSK;
  status |= (context & NIOS2_STATUS_PIE_MSK);
  
  NIOS2_WRITE_STATUS (status);
#else
  NIOS2_WRITE_STATUS (context);
     920:	e0bff917 	ldw	r2,-28(fp)
     924:	1001703a 	wrctl	status,r2
    }
    OS_ENTER_CRITICAL();
    len = OS_StrLen(pname);                           /* Can we fit the string in the storage area?    */
    if (len > (OS_EVENT_NAME_SIZE - 1)) {             /* No                                            */
        OS_EXIT_CRITICAL();
        *perr = OS_ERR_EVENT_NAME_TOO_LONG;
     928:	e0ffff17 	ldw	r3,-4(fp)
     92c:	008002c4 	movi	r2,11
     930:	18800005 	stb	r2,0(r3)
        return;
     934:	00000a06 	br	960 <OSEventNameSet+0x130>
    }
    (void)OS_StrCopy(pevent->OSEventName, pname);     /* Yes, copy name to the event control block     */
     938:	e0bffd17 	ldw	r2,-12(fp)
     93c:	11000384 	addi	r4,r2,14
     940:	e17ffe17 	ldw	r5,-8(fp)
     944:	00022840 	call	2284 <OS_StrCopy>
     948:	e0bffb17 	ldw	r2,-20(fp)
     94c:	e0bff815 	stw	r2,-32(fp)
     950:	e0bff817 	ldw	r2,-32(fp)
     954:	1001703a 	wrctl	status,r2
    OS_EXIT_CRITICAL();
    *perr = OS_ERR_NONE;
     958:	e0bfff17 	ldw	r2,-4(fp)
     95c:	10000005 	stb	zero,0(r2)
}
     960:	e037883a 	mov	sp,fp
     964:	dfc00117 	ldw	ra,4(sp)
     968:	df000017 	ldw	fp,0(sp)
     96c:	dec00204 	addi	sp,sp,8
     970:	f800283a 	ret

00000974 <OSEventPendMulti>:
*********************************************************************************************************
*/
/*$PAGE*/
#if ((OS_EVENT_EN) && (OS_EVENT_MULTI_EN > 0))
INT16U  OSEventPendMulti (OS_EVENT **pevents_pend, OS_EVENT **pevents_rdy, void **pmsgs_rdy, INT16U timeout, INT8U *perr)
{
     974:	deffe704 	addi	sp,sp,-100
     978:	dfc01815 	stw	ra,96(sp)
     97c:	df001715 	stw	fp,92(sp)
     980:	df001704 	addi	fp,sp,92
     984:	e13ff615 	stw	r4,-40(fp)
     988:	e17ff715 	stw	r5,-36(fp)
     98c:	e1bff815 	stw	r6,-32(fp)
     990:	e1fff90d 	sth	r7,-28(fp)
#endif
    BOOLEAN     events_rdy;
    INT16U      events_rdy_nbr;
    INT8U       events_stat;
#if (OS_CRITICAL_METHOD == 3)                           /* Allocate storage for CPU status register    */
    OS_CPU_SR   cpu_sr = 0;
     994:	e03ff015 	stw	zero,-64(fp)
#endif



#if (OS_ARG_CHK_EN > 0)
    if (perr == (INT8U *)0) {                           /* Validate 'perr'                             */
     998:	e0800217 	ldw	r2,8(fp)
     99c:	1004c03a 	cmpne	r2,r2,zero
     9a0:	1000021e 	bne	r2,zero,9ac <OSEventPendMulti+0x38>
        return (0);
     9a4:	e03fff15 	stw	zero,-4(fp)
     9a8:	00019906 	br	1010 <OSEventPendMulti+0x69c>
    }
    if (pevents_pend == (OS_EVENT **)0) {               /* Validate 'pevents_pend'                     */
     9ac:	e0bff617 	ldw	r2,-40(fp)
     9b0:	1004c03a 	cmpne	r2,r2,zero
     9b4:	1000051e 	bne	r2,zero,9cc <OSEventPendMulti+0x58>
       *perr =  OS_ERR_PEVENT_NULL;
     9b8:	e0c00217 	ldw	r3,8(fp)
     9bc:	00800104 	movi	r2,4
     9c0:	18800005 	stb	r2,0(r3)
        return (0);
     9c4:	e03fff15 	stw	zero,-4(fp)
     9c8:	00019106 	br	1010 <OSEventPendMulti+0x69c>
    }
    if (pevents_rdy  == (OS_EVENT **)0) {               /* Validate 'pevents_rdy'                      */
     9cc:	e0bff717 	ldw	r2,-36(fp)
     9d0:	1004c03a 	cmpne	r2,r2,zero
     9d4:	1000051e 	bne	r2,zero,9ec <OSEventPendMulti+0x78>
       *perr =  OS_ERR_PEVENT_NULL;
     9d8:	e0c00217 	ldw	r3,8(fp)
     9dc:	00800104 	movi	r2,4
     9e0:	18800005 	stb	r2,0(r3)
        return (0);
     9e4:	e03fff15 	stw	zero,-4(fp)
     9e8:	00018906 	br	1010 <OSEventPendMulti+0x69c>
    }
    if (pmsgs_rdy == (void **)0) {                      /* Validate 'pmsgs_rdy'                        */
     9ec:	e0bff817 	ldw	r2,-32(fp)
     9f0:	1004c03a 	cmpne	r2,r2,zero
     9f4:	1000051e 	bne	r2,zero,a0c <OSEventPendMulti+0x98>
       *perr =  OS_ERR_PEVENT_NULL;
     9f8:	e0c00217 	ldw	r3,8(fp)
     9fc:	00800104 	movi	r2,4
     a00:	18800005 	stb	r2,0(r3)
        return (0);
     a04:	e03fff15 	stw	zero,-4(fp)
     a08:	00018106 	br	1010 <OSEventPendMulti+0x69c>
    }
#endif

   *pevents_rdy = (OS_EVENT *)0;                        /* Init array to NULL in case of errors        */
     a0c:	e0bff717 	ldw	r2,-36(fp)
     a10:	10000015 	stw	zero,0(r2)

    pevents     =  pevents_pend;
     a14:	e0bff617 	ldw	r2,-40(fp)
     a18:	e0bff515 	stw	r2,-44(fp)
    pevent      = *pevents;
     a1c:	e0bff517 	ldw	r2,-44(fp)
     a20:	10800017 	ldw	r2,0(r2)
     a24:	e0bff415 	stw	r2,-48(fp)
    while  (pevent != (OS_EVENT *)0) {
     a28:	00001806 	br	a8c <OSEventPendMulti+0x118>
        switch (pevent->OSEventType) {                  /* Validate event block types                  */
     a2c:	e0bff417 	ldw	r2,-48(fp)
     a30:	10800003 	ldbu	r2,0(r2)
     a34:	10803fcc 	andi	r2,r2,255
     a38:	e0bffe15 	stw	r2,-8(fp)
     a3c:	e0fffe17 	ldw	r3,-8(fp)
     a40:	188000a0 	cmpeqi	r2,r3,2
     a44:	10000b1e 	bne	r2,zero,a74 <OSEventPendMulti+0x100>
     a48:	e0fffe17 	ldw	r3,-8(fp)
     a4c:	188000e0 	cmpeqi	r2,r3,3
     a50:	1000081e 	bne	r2,zero,a74 <OSEventPendMulti+0x100>
     a54:	e0fffe17 	ldw	r3,-8(fp)
     a58:	18800060 	cmpeqi	r2,r3,1
     a5c:	1000051e 	bne	r2,zero,a74 <OSEventPendMulti+0x100>
#endif

            case OS_EVENT_TYPE_MUTEX:                                            
            case OS_EVENT_TYPE_FLAG:
            default:           
                *perr = OS_ERR_EVENT_TYPE;
     a60:	e0c00217 	ldw	r3,8(fp)
     a64:	00800044 	movi	r2,1
     a68:	18800005 	stb	r2,0(r3)
                 return (0);
     a6c:	e03fff15 	stw	zero,-4(fp)
     a70:	00016706 	br	1010 <OSEventPendMulti+0x69c>
        }
        pevents++;
     a74:	e0bff517 	ldw	r2,-44(fp)
     a78:	10800104 	addi	r2,r2,4
     a7c:	e0bff515 	stw	r2,-44(fp)
        pevent = *pevents;
     a80:	e0bff517 	ldw	r2,-44(fp)
     a84:	10800017 	ldw	r2,0(r2)
     a88:	e0bff415 	stw	r2,-48(fp)

   *pevents_rdy = (OS_EVENT *)0;                        /* Init array to NULL in case of errors        */

    pevents     =  pevents_pend;
    pevent      = *pevents;
    while  (pevent != (OS_EVENT *)0) {
     a8c:	e0bff417 	ldw	r2,-48(fp)
     a90:	1004c03a 	cmpne	r2,r2,zero
     a94:	103fe51e 	bne	r2,zero,a2c <OSEventPendMulti+0xb8>
        }
        pevents++;
        pevent = *pevents;
    }

    if (OSIntNesting  > 0) {                            /* See if called from ISR ...                  */
     a98:	d0a04103 	ldbu	r2,-32508(gp)
     a9c:	10803fcc 	andi	r2,r2,255
     aa0:	1005003a 	cmpeq	r2,r2,zero
     aa4:	1000051e 	bne	r2,zero,abc <OSEventPendMulti+0x148>
       *perr =  OS_ERR_PEND_ISR;                        /* ... can't PEND from an ISR                  */
     aa8:	e0c00217 	ldw	r3,8(fp)
     aac:	00800084 	movi	r2,2
     ab0:	18800005 	stb	r2,0(r3)
        return (0);
     ab4:	e03fff15 	stw	zero,-4(fp)
     ab8:	00015506 	br	1010 <OSEventPendMulti+0x69c>
    }
    if (OSLockNesting > 0) {                            /* See if called with scheduler locked ...     */
     abc:	d0a03303 	ldbu	r2,-32564(gp)
     ac0:	10803fcc 	andi	r2,r2,255
     ac4:	1005003a 	cmpeq	r2,r2,zero
     ac8:	1000051e 	bne	r2,zero,ae0 <OSEventPendMulti+0x16c>
       *perr =  OS_ERR_PEND_LOCKED;                     /* ... can't PEND when locked                  */
     acc:	e0c00217 	ldw	r3,8(fp)
     ad0:	00800344 	movi	r2,13
     ad4:	18800005 	stb	r2,0(r3)
        return (0);
     ad8:	e03fff15 	stw	zero,-4(fp)
     adc:	00014c06 	br	1010 <OSEventPendMulti+0x69c>
static ALT_INLINE alt_irq_context ALT_ALWAYS_INLINE 
       alt_irq_disable_all (void)
{
  alt_irq_context context;

  NIOS2_READ_STATUS (context);
     ae0:	0005303a 	rdctl	r2,status
     ae4:	e0bfef15 	stw	r2,-68(fp)

  NIOS2_WRITE_STATUS (context & ~NIOS2_STATUS_PIE_MSK);
     ae8:	e0ffef17 	ldw	r3,-68(fp)
     aec:	00bfff84 	movi	r2,-2
     af0:	1884703a 	and	r2,r3,r2
     af4:	1001703a 	wrctl	status,r2
  
  return context;
     af8:	e0bfef17 	ldw	r2,-68(fp)
    }

/*$PAGE*/
    OS_ENTER_CRITICAL();
     afc:	e0bff015 	stw	r2,-64(fp)
    events_rdy     =  OS_FALSE;
     b00:	e03ff205 	stb	zero,-56(fp)
    events_rdy_nbr =  0;
     b04:	e03ff18d 	sth	zero,-58(fp)
    events_stat    =  OS_STAT_RDY;
     b08:	e03ff105 	stb	zero,-60(fp)
    pevents        =  pevents_pend;
     b0c:	e0bff617 	ldw	r2,-40(fp)
     b10:	e0bff515 	stw	r2,-44(fp)
    pevent         = *pevents;
     b14:	e0bff517 	ldw	r2,-44(fp)
     b18:	10800017 	ldw	r2,0(r2)
     b1c:	e0bff415 	stw	r2,-48(fp)
    while (pevent != (OS_EVENT *)0) {                   /* See if any events already available         */
     b20:	00008f06 	br	d60 <OSEventPendMulti+0x3ec>
        switch (pevent->OSEventType) {
     b24:	e0bff417 	ldw	r2,-48(fp)
     b28:	10800003 	ldbu	r2,0(r2)
     b2c:	10803fcc 	andi	r2,r2,255
     b30:	e0bffd15 	stw	r2,-12(fp)
     b34:	e0fffd17 	ldw	r3,-12(fp)
     b38:	188000a0 	cmpeqi	r2,r3,2
     b3c:	1000441e 	bne	r2,zero,c50 <OSEventPendMulti+0x2dc>
     b40:	e0fffd17 	ldw	r3,-12(fp)
     b44:	188000e0 	cmpeqi	r2,r3,3
     b48:	1000041e 	bne	r2,zero,b5c <OSEventPendMulti+0x1e8>
     b4c:	e0fffd17 	ldw	r3,-12(fp)
     b50:	18800060 	cmpeqi	r2,r3,1
     b54:	1000211e 	bne	r2,zero,bdc <OSEventPendMulti+0x268>
     b58:	00006f06 	br	d18 <OSEventPendMulti+0x3a4>
#if (OS_SEM_EN > 0)
            case OS_EVENT_TYPE_SEM:
                 if (pevent->OSEventCnt > 0) {          /* If semaphore count > 0, resource available; */
     b5c:	e0bff417 	ldw	r2,-48(fp)
     b60:	1080020b 	ldhu	r2,8(r2)
     b64:	10bfffcc 	andi	r2,r2,65535
     b68:	1005003a 	cmpeq	r2,r2,zero
     b6c:	1000171e 	bne	r2,zero,bcc <OSEventPendMulti+0x258>
                     pevent->OSEventCnt--;              /* ... decrement semaphore,                ... */
     b70:	e0bff417 	ldw	r2,-48(fp)
     b74:	1080020b 	ldhu	r2,8(r2)
     b78:	10bfffc4 	addi	r2,r2,-1
     b7c:	1007883a 	mov	r3,r2
     b80:	e0bff417 	ldw	r2,-48(fp)
     b84:	10c0020d 	sth	r3,8(r2)
                    *pevents_rdy++ =  pevent;           /* ... and return available semaphore event    */
     b88:	e0fff717 	ldw	r3,-36(fp)
     b8c:	e0bff417 	ldw	r2,-48(fp)
     b90:	18800015 	stw	r2,0(r3)
     b94:	e0bff717 	ldw	r2,-36(fp)
     b98:	10800104 	addi	r2,r2,4
     b9c:	e0bff715 	stw	r2,-36(fp)
                      events_rdy   =  OS_TRUE;
     ba0:	00800044 	movi	r2,1
     ba4:	e0bff205 	stb	r2,-56(fp)
                    *pmsgs_rdy++   = (void *)0;         /* NO message returned  for semaphores         */
     ba8:	e0bff817 	ldw	r2,-32(fp)
     bac:	10000015 	stw	zero,0(r2)
     bb0:	e0bff817 	ldw	r2,-32(fp)
     bb4:	10800104 	addi	r2,r2,4
     bb8:	e0bff815 	stw	r2,-32(fp)
                      events_rdy_nbr++;
     bbc:	e0bff18b 	ldhu	r2,-58(fp)
     bc0:	10800044 	addi	r2,r2,1
     bc4:	e0bff18d 	sth	r2,-58(fp)
     bc8:	00005f06 	br	d48 <OSEventPendMulti+0x3d4>

                 } else {
                      events_stat |=  OS_STAT_SEM;      /* Configure multi-pend for semaphore events   */
     bcc:	e0bff103 	ldbu	r2,-60(fp)
     bd0:	10800054 	ori	r2,r2,1
     bd4:	e0bff105 	stb	r2,-60(fp)
                 }
                 break;
     bd8:	00005b06 	br	d48 <OSEventPendMulti+0x3d4>
#endif

#if (OS_MBOX_EN > 0)
            case OS_EVENT_TYPE_MBOX:
                 if (pevent->OSEventPtr != (void *)0) { /* If mailbox NOT empty;                   ... */
     bdc:	e0bff417 	ldw	r2,-48(fp)
     be0:	10800117 	ldw	r2,4(r2)
     be4:	1005003a 	cmpeq	r2,r2,zero
     be8:	1000151e 	bne	r2,zero,c40 <OSEventPendMulti+0x2cc>
                                                        /* ... return available message,           ... */
                    *pmsgs_rdy++         = (void *)pevent->OSEventPtr;
     bec:	e0bff417 	ldw	r2,-48(fp)
     bf0:	10c00117 	ldw	r3,4(r2)
     bf4:	e0bff817 	ldw	r2,-32(fp)
     bf8:	10c00015 	stw	r3,0(r2)
     bfc:	e0bff817 	ldw	r2,-32(fp)
     c00:	10800104 	addi	r2,r2,4
     c04:	e0bff815 	stw	r2,-32(fp)
                     pevent->OSEventPtr  = (void *)0;
     c08:	e0bff417 	ldw	r2,-48(fp)
     c0c:	10000115 	stw	zero,4(r2)
                    *pevents_rdy++       =  pevent;     /* ... and return available mailbox event      */
     c10:	e0fff717 	ldw	r3,-36(fp)
     c14:	e0bff417 	ldw	r2,-48(fp)
     c18:	18800015 	stw	r2,0(r3)
     c1c:	e0bff717 	ldw	r2,-36(fp)
     c20:	10800104 	addi	r2,r2,4
     c24:	e0bff715 	stw	r2,-36(fp)
                      events_rdy         =  OS_TRUE;
     c28:	00800044 	movi	r2,1
     c2c:	e0bff205 	stb	r2,-56(fp)
                      events_rdy_nbr++;
     c30:	e0bff18b 	ldhu	r2,-58(fp)
     c34:	10800044 	addi	r2,r2,1
     c38:	e0bff18d 	sth	r2,-58(fp)
     c3c:	00004206 	br	d48 <OSEventPendMulti+0x3d4>

                 } else {
                      events_stat |= OS_STAT_MBOX;      /* Configure multi-pend for mailbox events     */
     c40:	e0bff103 	ldbu	r2,-60(fp)
     c44:	10800094 	ori	r2,r2,2
     c48:	e0bff105 	stb	r2,-60(fp)
                 }
                 break;
     c4c:	00003e06 	br	d48 <OSEventPendMulti+0x3d4>
#endif

#if ((OS_Q_EN > 0) && (OS_MAX_QS > 0))
            case OS_EVENT_TYPE_Q:
                 pq = (OS_Q *)pevent->OSEventPtr;
     c50:	e0bff417 	ldw	r2,-48(fp)
     c54:	10800117 	ldw	r2,4(r2)
     c58:	e0bff315 	stw	r2,-52(fp)
                 if (pq->OSQEntries > 0) {              /* If queue NOT empty;                     ... */
     c5c:	e0bff317 	ldw	r2,-52(fp)
     c60:	1080058b 	ldhu	r2,22(r2)
     c64:	10bfffcc 	andi	r2,r2,65535
     c68:	1005003a 	cmpeq	r2,r2,zero
     c6c:	1000261e 	bne	r2,zero,d08 <OSEventPendMulti+0x394>
                                                        /* ... return available message,           ... */
                    *pmsgs_rdy++ = (void *)*pq->OSQOut++;
     c70:	e0bff317 	ldw	r2,-52(fp)
     c74:	11000417 	ldw	r4,16(r2)
     c78:	20c00017 	ldw	r3,0(r4)
     c7c:	e0bff817 	ldw	r2,-32(fp)
     c80:	10c00015 	stw	r3,0(r2)
     c84:	e0bff817 	ldw	r2,-32(fp)
     c88:	10800104 	addi	r2,r2,4
     c8c:	e0bff815 	stw	r2,-32(fp)
     c90:	20c00104 	addi	r3,r4,4
     c94:	e0bff317 	ldw	r2,-52(fp)
     c98:	10c00415 	stw	r3,16(r2)
                     if (pq->OSQOut == pq->OSQEnd) {    /* If OUT ptr at queue end, ...                */
     c9c:	e0bff317 	ldw	r2,-52(fp)
     ca0:	10c00417 	ldw	r3,16(r2)
     ca4:	e0bff317 	ldw	r2,-52(fp)
     ca8:	10800217 	ldw	r2,8(r2)
     cac:	1880041e 	bne	r3,r2,cc0 <OSEventPendMulti+0x34c>
                         pq->OSQOut  = pq->OSQStart;    /* ... wrap   to queue start                   */
     cb0:	e0bff317 	ldw	r2,-52(fp)
     cb4:	10c00117 	ldw	r3,4(r2)
     cb8:	e0bff317 	ldw	r2,-52(fp)
     cbc:	10c00415 	stw	r3,16(r2)
                     }
                     pq->OSQEntries--;                  /* Update number of queue entries              */
     cc0:	e0bff317 	ldw	r2,-52(fp)
     cc4:	1080058b 	ldhu	r2,22(r2)
     cc8:	10bfffc4 	addi	r2,r2,-1
     ccc:	1007883a 	mov	r3,r2
     cd0:	e0bff317 	ldw	r2,-52(fp)
     cd4:	10c0058d 	sth	r3,22(r2)
                    *pevents_rdy++ = pevent;            /* ... and return available queue event        */
     cd8:	e0fff717 	ldw	r3,-36(fp)
     cdc:	e0bff417 	ldw	r2,-48(fp)
     ce0:	18800015 	stw	r2,0(r3)
     ce4:	e0bff717 	ldw	r2,-36(fp)
     ce8:	10800104 	addi	r2,r2,4
     cec:	e0bff715 	stw	r2,-36(fp)
                      events_rdy   = OS_TRUE;
     cf0:	00800044 	movi	r2,1
     cf4:	e0bff205 	stb	r2,-56(fp)
                      events_rdy_nbr++;
     cf8:	e0bff18b 	ldhu	r2,-58(fp)
     cfc:	10800044 	addi	r2,r2,1
     d00:	e0bff18d 	sth	r2,-58(fp)
     d04:	00001006 	br	d48 <OSEventPendMulti+0x3d4>

                 } else {
                      events_stat |= OS_STAT_Q;         /* Configure multi-pend for queue events       */
     d08:	e0bff103 	ldbu	r2,-60(fp)
     d0c:	10800114 	ori	r2,r2,4
     d10:	e0bff105 	stb	r2,-60(fp)
                 }
                 break;
     d14:	00000c06 	br	d48 <OSEventPendMulti+0x3d4>
     d18:	e0bff017 	ldw	r2,-64(fp)
     d1c:	e0bfee15 	stw	r2,-72(fp)
  status &= ~NIOS2_STATUS_PIE_MSK;
  status |= (context & NIOS2_STATUS_PIE_MSK);
  
  NIOS2_WRITE_STATUS (status);
#else
  NIOS2_WRITE_STATUS (context);
     d20:	e0bfee17 	ldw	r2,-72(fp)
     d24:	1001703a 	wrctl	status,r2

            case OS_EVENT_TYPE_MUTEX:                                            
            case OS_EVENT_TYPE_FLAG:
            default:           
                 OS_EXIT_CRITICAL();
                *pevents_rdy = (OS_EVENT *)0;           /* NULL terminate return event array           */
     d28:	e0bff717 	ldw	r2,-36(fp)
     d2c:	10000015 	stw	zero,0(r2)
                *perr        =  OS_ERR_EVENT_TYPE;
     d30:	e0c00217 	ldw	r3,8(fp)
     d34:	00800044 	movi	r2,1
     d38:	18800005 	stb	r2,0(r3)
                 return (events_rdy_nbr);
     d3c:	e0bff18b 	ldhu	r2,-58(fp)
     d40:	e0bfff15 	stw	r2,-4(fp)
     d44:	0000b206 	br	1010 <OSEventPendMulti+0x69c>
        }
        pevents++;
     d48:	e0bff517 	ldw	r2,-44(fp)
     d4c:	10800104 	addi	r2,r2,4
     d50:	e0bff515 	stw	r2,-44(fp)
        pevent = *pevents;
     d54:	e0bff517 	ldw	r2,-44(fp)
     d58:	10800017 	ldw	r2,0(r2)
     d5c:	e0bff415 	stw	r2,-48(fp)
    events_rdy     =  OS_FALSE;
    events_rdy_nbr =  0;
    events_stat    =  OS_STAT_RDY;
    pevents        =  pevents_pend;
    pevent         = *pevents;
    while (pevent != (OS_EVENT *)0) {                   /* See if any events already available         */
     d60:	e0bff417 	ldw	r2,-48(fp)
     d64:	1004c03a 	cmpne	r2,r2,zero
     d68:	103f6e1e 	bne	r2,zero,b24 <OSEventPendMulti+0x1b0>
        }
        pevents++;
        pevent = *pevents;
    }

    if ( events_rdy == OS_TRUE) {                       /* Return any events already available         */
     d6c:	e0bff203 	ldbu	r2,-56(fp)
     d70:	10800058 	cmpnei	r2,r2,1
     d74:	10000b1e 	bne	r2,zero,da4 <OSEventPendMulti+0x430>
       *pevents_rdy = (OS_EVENT *)0;                    /* NULL terminate return event array           */
     d78:	e0bff717 	ldw	r2,-36(fp)
     d7c:	10000015 	stw	zero,0(r2)
     d80:	e0bff017 	ldw	r2,-64(fp)
     d84:	e0bfed15 	stw	r2,-76(fp)
     d88:	e0bfed17 	ldw	r2,-76(fp)
     d8c:	1001703a 	wrctl	status,r2
        OS_EXIT_CRITICAL();
       *perr        =  OS_ERR_NONE;
     d90:	e0800217 	ldw	r2,8(fp)
     d94:	10000005 	stb	zero,0(r2)
        return (events_rdy_nbr);
     d98:	e0fff18b 	ldhu	r3,-58(fp)
     d9c:	e0ffff15 	stw	r3,-4(fp)
     da0:	00009b06 	br	1010 <OSEventPendMulti+0x69c>
    }
/*$PAGE*/
                                                        /* Otherwise, must wait until any event occurs */
    OSTCBCur->OSTCBStat     |= events_stat  |           /* Resource not available, ...                 */
     da4:	d1204217 	ldw	r4,-32504(gp)
     da8:	d0a04217 	ldw	r2,-32504(gp)
     dac:	10c00c03 	ldbu	r3,48(r2)
     db0:	e0bff103 	ldbu	r2,-60(fp)
     db4:	1884b03a 	or	r2,r3,r2
     db8:	1007883a 	mov	r3,r2
     dbc:	00bfe004 	movi	r2,-128
     dc0:	1884b03a 	or	r2,r3,r2
     dc4:	20800c05 	stb	r2,48(r4)
                               OS_STAT_MULTI;           /* ... pend on multiple events                 */
    OSTCBCur->OSTCBStatPend  = OS_STAT_PEND_OK;
     dc8:	d0a04217 	ldw	r2,-32504(gp)
     dcc:	10000c45 	stb	zero,49(r2)
    OSTCBCur->OSTCBDly       = timeout;                 /* Store pend timeout in TCB                   */
     dd0:	d0e04217 	ldw	r3,-32504(gp)
     dd4:	e0bff90b 	ldhu	r2,-28(fp)
     dd8:	18800b8d 	sth	r2,46(r3)
    OS_EventTaskWaitMulti(pevents_pend);                /* Suspend task until events or timeout occurs */
     ddc:	e13ff617 	ldw	r4,-40(fp)
     de0:	00019a40 	call	19a4 <OS_EventTaskWaitMulti>
     de4:	e0bff017 	ldw	r2,-64(fp)
     de8:	e0bfec15 	stw	r2,-80(fp)
     dec:	e0bfec17 	ldw	r2,-80(fp)
     df0:	1001703a 	wrctl	status,r2

    OS_EXIT_CRITICAL();
    OS_Sched();                                         /* Find next highest priority task ready       */
     df4:	00021400 	call	2140 <OS_Sched>
static ALT_INLINE alt_irq_context ALT_ALWAYS_INLINE 
       alt_irq_disable_all (void)
{
  alt_irq_context context;

  NIOS2_READ_STATUS (context);
     df8:	0005303a 	rdctl	r2,status
     dfc:	e0bfeb15 	stw	r2,-84(fp)

  NIOS2_WRITE_STATUS (context & ~NIOS2_STATUS_PIE_MSK);
     e00:	e0ffeb17 	ldw	r3,-84(fp)
     e04:	00bfff84 	movi	r2,-2
     e08:	1884703a 	and	r2,r3,r2
     e0c:	1001703a 	wrctl	status,r2
  
  return context;
     e10:	e0bfeb17 	ldw	r2,-84(fp)
    OS_ENTER_CRITICAL();
     e14:	e0bff015 	stw	r2,-64(fp)

    switch (OSTCBCur->OSTCBStatPend) {                  /* Handle event posted, aborted, or timed-out  */
     e18:	d0a04217 	ldw	r2,-32504(gp)
     e1c:	10800c43 	ldbu	r2,49(r2)
     e20:	10803fcc 	andi	r2,r2,255
     e24:	e0bffc15 	stw	r2,-16(fp)
     e28:	e0fffc17 	ldw	r3,-16(fp)
     e2c:	1805003a 	cmpeq	r2,r3,zero
     e30:	1000041e 	bne	r2,zero,e44 <OSEventPendMulti+0x4d0>
     e34:	e0fffc17 	ldw	r3,-16(fp)
     e38:	188000a0 	cmpeqi	r2,r3,2
     e3c:	1000011e 	bne	r2,zero,e44 <OSEventPendMulti+0x4d0>
     e40:	00001906 	br	ea8 <OSEventPendMulti+0x534>
        case OS_STAT_PEND_OK:
        case OS_STAT_PEND_ABORT:
             pevent = OSTCBCur->OSTCBEventPtr;
     e44:	d0a04217 	ldw	r2,-32504(gp)
     e48:	10800717 	ldw	r2,28(r2)
     e4c:	e0bff415 	stw	r2,-48(fp)
             if (pevent != (OS_EVENT *)0) {             /* If task event ptr != NULL, ...              */
     e50:	e0bff417 	ldw	r2,-48(fp)
     e54:	1005003a 	cmpeq	r2,r2,zero
     e58:	10000c1e 	bne	r2,zero,e8c <OSEventPendMulti+0x518>
                *pevents_rdy++ =  pevent;               /* ... return available event ...              */
     e5c:	e0fff717 	ldw	r3,-36(fp)
     e60:	e0bff417 	ldw	r2,-48(fp)
     e64:	18800015 	stw	r2,0(r3)
     e68:	e0bff717 	ldw	r2,-36(fp)
     e6c:	10800104 	addi	r2,r2,4
     e70:	e0bff715 	stw	r2,-36(fp)
                *pevents_rdy   = (OS_EVENT *)0;         /* ... & NULL terminate return event array     */
     e74:	e0bff717 	ldw	r2,-36(fp)
     e78:	10000015 	stw	zero,0(r2)
                  events_rdy_nbr++;
     e7c:	e0bff18b 	ldhu	r2,-58(fp)
     e80:	10800044 	addi	r2,r2,1
     e84:	e0bff18d 	sth	r2,-58(fp)
     e88:	00000a06 	br	eb4 <OSEventPendMulti+0x540>

             } else {                                   /* Else NO event available, handle as timeout  */
                 OSTCBCur->OSTCBStatPend = OS_STAT_PEND_TO;
     e8c:	d0a04217 	ldw	r2,-32504(gp)
     e90:	00c00044 	movi	r3,1
     e94:	10c00c45 	stb	r3,49(r2)
                 OS_EventTaskRemoveMulti(OSTCBCur, pevents_pend);
     e98:	d1204217 	ldw	r4,-32504(gp)
     e9c:	e17ff617 	ldw	r5,-40(fp)
     ea0:	0001bb00 	call	1bb0 <OS_EventTaskRemoveMulti>
             }
			 break;
     ea4:	00000306 	br	eb4 <OSEventPendMulti+0x540>

        case OS_STAT_PEND_TO:
        default:                                        /* ... remove task from events' wait lists     */
             OS_EventTaskRemoveMulti(OSTCBCur, pevents_pend);
     ea8:	d1204217 	ldw	r4,-32504(gp)
     eac:	e17ff617 	ldw	r5,-40(fp)
     eb0:	0001bb00 	call	1bb0 <OS_EventTaskRemoveMulti>
             break;
    }

    switch (OSTCBCur->OSTCBStatPend) {
     eb4:	d0a04217 	ldw	r2,-32504(gp)
     eb8:	10800c43 	ldbu	r2,49(r2)
     ebc:	10803fcc 	andi	r2,r2,255
     ec0:	e0bffb15 	stw	r2,-20(fp)
     ec4:	e0fffb17 	ldw	r3,-20(fp)
     ec8:	1805003a 	cmpeq	r2,r3,zero
     ecc:	1000041e 	bne	r2,zero,ee0 <OSEventPendMulti+0x56c>
     ed0:	e0fffb17 	ldw	r3,-20(fp)
     ed4:	188000a0 	cmpeqi	r2,r3,2
     ed8:	10002c1e 	bne	r2,zero,f8c <OSEventPendMulti+0x618>
     edc:	00003406 	br	fb0 <OSEventPendMulti+0x63c>
        case OS_STAT_PEND_OK:
             switch (pevent->OSEventType) {             /* Return event's message                      */
     ee0:	e0bff417 	ldw	r2,-48(fp)
     ee4:	10800003 	ldbu	r2,0(r2)
     ee8:	10803fcc 	andi	r2,r2,255
     eec:	e0bffa15 	stw	r2,-24(fp)
     ef0:	e0fffa17 	ldw	r3,-24(fp)
     ef4:	18800050 	cmplti	r2,r3,1
     ef8:	1000151e 	bne	r2,zero,f50 <OSEventPendMulti+0x5dc>
     efc:	e0fffa17 	ldw	r3,-24(fp)
     f00:	188000d0 	cmplti	r2,r3,3
     f04:	10000a1e 	bne	r2,zero,f30 <OSEventPendMulti+0x5bc>
     f08:	e0fffa17 	ldw	r3,-24(fp)
     f0c:	188000e0 	cmpeqi	r2,r3,3
     f10:	1000011e 	bne	r2,zero,f18 <OSEventPendMulti+0x5a4>
     f14:	00000e06 	br	f50 <OSEventPendMulti+0x5dc>
#if (OS_SEM_EN > 0)
                 case OS_EVENT_TYPE_SEM:
                     *pmsgs_rdy++ = (void *)0;          /* NO message returned for semaphores          */
     f18:	e0bff817 	ldw	r2,-32(fp)
     f1c:	10000015 	stw	zero,0(r2)
     f20:	e0bff817 	ldw	r2,-32(fp)
     f24:	10800104 	addi	r2,r2,4
     f28:	e0bff815 	stw	r2,-32(fp)
                      break;
     f2c:	00001406 	br	f80 <OSEventPendMulti+0x60c>

#if ((OS_MBOX_EN > 0) ||                 \
    ((OS_Q_EN    > 0) && (OS_MAX_QS > 0)))
                 case OS_EVENT_TYPE_MBOX:
                 case OS_EVENT_TYPE_Q:
                     *pmsgs_rdy++ = (void *)OSTCBCur->OSTCBMsg;     /* Return received message         */
     f30:	d0a04217 	ldw	r2,-32504(gp)
     f34:	10c00917 	ldw	r3,36(r2)
     f38:	e0bff817 	ldw	r2,-32(fp)
     f3c:	10c00015 	stw	r3,0(r2)
     f40:	e0bff817 	ldw	r2,-32(fp)
     f44:	10800104 	addi	r2,r2,4
     f48:	e0bff815 	stw	r2,-32(fp)
                      break;
     f4c:	00000c06 	br	f80 <OSEventPendMulti+0x60c>
     f50:	e0bff017 	ldw	r2,-64(fp)
     f54:	e0bfea15 	stw	r2,-88(fp)
  status &= ~NIOS2_STATUS_PIE_MSK;
  status |= (context & NIOS2_STATUS_PIE_MSK);
  
  NIOS2_WRITE_STATUS (status);
#else
  NIOS2_WRITE_STATUS (context);
     f58:	e0bfea17 	ldw	r2,-88(fp)
     f5c:	1001703a 	wrctl	status,r2

                 case OS_EVENT_TYPE_MUTEX:                                       
                 case OS_EVENT_TYPE_FLAG:
                 default:           
                      OS_EXIT_CRITICAL();
                     *pevents_rdy = (OS_EVENT *)0;      /* NULL terminate return event array           */
     f60:	e0bff717 	ldw	r2,-36(fp)
     f64:	10000015 	stw	zero,0(r2)
                     *perr        =  OS_ERR_EVENT_TYPE;
     f68:	e0c00217 	ldw	r3,8(fp)
     f6c:	00800044 	movi	r2,1
     f70:	18800005 	stb	r2,0(r3)
                      return (events_rdy_nbr);
     f74:	e0bff18b 	ldhu	r2,-58(fp)
     f78:	e0bfff15 	stw	r2,-4(fp)
     f7c:	00002406 	br	1010 <OSEventPendMulti+0x69c>
             }
            *perr = OS_ERR_NONE;
     f80:	e0800217 	ldw	r2,8(fp)
     f84:	10000005 	stb	zero,0(r2)
             break;
     f88:	00001106 	br	fd0 <OSEventPendMulti+0x65c>

        case OS_STAT_PEND_ABORT:
            *pmsgs_rdy++ = (void *)0;                   /* NO message returned for abort               */
     f8c:	e0bff817 	ldw	r2,-32(fp)
     f90:	10000015 	stw	zero,0(r2)
     f94:	e0bff817 	ldw	r2,-32(fp)
     f98:	10800104 	addi	r2,r2,4
     f9c:	e0bff815 	stw	r2,-32(fp)
            *perr        =  OS_ERR_PEND_ABORT;          /* Indicate that event  aborted                */
     fa0:	e0c00217 	ldw	r3,8(fp)
     fa4:	00800384 	movi	r2,14
     fa8:	18800005 	stb	r2,0(r3)
             break;
     fac:	00000806 	br	fd0 <OSEventPendMulti+0x65c>
                                                        
        case OS_STAT_PEND_TO:                                                
        default:        
            *pmsgs_rdy++ = (void *)0;                   /* NO message returned for timeout             */
     fb0:	e0bff817 	ldw	r2,-32(fp)
     fb4:	10000015 	stw	zero,0(r2)
     fb8:	e0bff817 	ldw	r2,-32(fp)
     fbc:	10800104 	addi	r2,r2,4
     fc0:	e0bff815 	stw	r2,-32(fp)
            *perr        =  OS_ERR_TIMEOUT;             /* Indicate that events timed out              */
     fc4:	e0c00217 	ldw	r3,8(fp)
     fc8:	00800284 	movi	r2,10
     fcc:	18800005 	stb	r2,0(r3)
             break;
    }

    OSTCBCur->OSTCBStat          =  OS_STAT_RDY;        /* Set   task  status to ready                 */
     fd0:	d0a04217 	ldw	r2,-32504(gp)
     fd4:	10000c05 	stb	zero,48(r2)
    OSTCBCur->OSTCBStatPend      =  OS_STAT_PEND_OK;    /* Clear pend  status                          */
     fd8:	d0a04217 	ldw	r2,-32504(gp)
     fdc:	10000c45 	stb	zero,49(r2)
    OSTCBCur->OSTCBEventPtr      = (OS_EVENT  *)0;      /* Clear event pointers                        */
     fe0:	d0a04217 	ldw	r2,-32504(gp)
     fe4:	10000715 	stw	zero,28(r2)
    OSTCBCur->OSTCBEventMultiPtr = (OS_EVENT **)0;
     fe8:	d0a04217 	ldw	r2,-32504(gp)
     fec:	10000815 	stw	zero,32(r2)
    OSTCBCur->OSTCBMsg           = (void      *)0;      /* Clear task  message                         */
     ff0:	d0a04217 	ldw	r2,-32504(gp)
     ff4:	10000915 	stw	zero,36(r2)
     ff8:	e0bff017 	ldw	r2,-64(fp)
     ffc:	e0bfe915 	stw	r2,-92(fp)
    1000:	e0bfe917 	ldw	r2,-92(fp)
    1004:	1001703a 	wrctl	status,r2
    OS_EXIT_CRITICAL();

    return (events_rdy_nbr);
    1008:	e0fff18b 	ldhu	r3,-58(fp)
    100c:	e0ffff15 	stw	r3,-4(fp)
    1010:	e0bfff17 	ldw	r2,-4(fp)
}
    1014:	e037883a 	mov	sp,fp
    1018:	dfc00117 	ldw	ra,4(sp)
    101c:	df000017 	ldw	fp,0(sp)
    1020:	dec00204 	addi	sp,sp,8
    1024:	f800283a 	ret

00001028 <OSInit>:
* Returns    : none
*********************************************************************************************************
*/

void  OSInit (void)
{
    1028:	defffe04 	addi	sp,sp,-8
    102c:	dfc00115 	stw	ra,4(sp)
    1030:	df000015 	stw	fp,0(sp)
    1034:	d839883a 	mov	fp,sp
    OSInitHookBegin();                                           /* Call port specific initialization code   */
    1038:	000cab80 	call	cab8 <OSInitHookBegin>

    OS_InitMisc();                                               /* Initialize miscellaneous variables       */
    103c:	0001df80 	call	1df8 <OS_InitMisc>

    OS_InitRdyList();                                            /* Initialize the Ready List                */
    1040:	0001e3c0 	call	1e3c <OS_InitRdyList>

    OS_InitTCBList();                                            /* Initialize the free list of OS_TCBs      */
    1044:	0001fa00 	call	1fa0 <OS_InitTCBList>

    OS_InitEventList();                                          /* Initialize the free list of OS_EVENTs    */
    1048:	0001d1c0 	call	1d1c <OS_InitEventList>

#if (OS_FLAG_EN > 0) && (OS_MAX_FLAGS > 0)
    OS_FlagInit();                                               /* Initialize the event flag structures     */
    104c:	00040500 	call	4050 <OS_FlagInit>
#endif

#if (OS_MEM_EN > 0) && (OS_MAX_MEM_PART > 0)
    OS_MemInit();                                                /* Initialize the memory manager            */
    1050:	0004a280 	call	4a28 <OS_MemInit>
#endif

#if (OS_Q_EN > 0) && (OS_MAX_QS > 0)
    OS_QInit();                                                  /* Initialize the message queue structures  */
    1054:	0005d840 	call	5d84 <OS_QInit>
#endif

    OS_InitTaskIdle();                                           /* Create the Idle Task                     */
    1058:	0001ea80 	call	1ea8 <OS_InitTaskIdle>
#if OS_TASK_STAT_EN > 0
    OS_InitTaskStat();                                           /* Create the Statistic Task                */
    105c:	0001f240 	call	1f24 <OS_InitTaskStat>

#if OS_TMR_EN > 0
    OSTmr_Init();                                                /* Initialize the Timer Manager             */
#endif

    OSInitHookEnd();                                             /* Call port specific init. code            */
    1060:	000cad40 	call	cad4 <OSInitHookEnd>

#if OS_DEBUG_EN > 0
    OSDebugInit();
    1064:	00028280 	call	2828 <OSDebugInit>
#endif
}
    1068:	e037883a 	mov	sp,fp
    106c:	dfc00117 	ldw	ra,4(sp)
    1070:	df000017 	ldw	fp,0(sp)
    1074:	dec00204 	addi	sp,sp,8
    1078:	f800283a 	ret

0000107c <OSIntEnter>:
*              5) You are allowed to nest interrupts up to 255 levels deep.
*********************************************************************************************************
*/

void  OSIntEnter (void)
{
    107c:	defffc04 	addi	sp,sp,-16
    1080:	df000315 	stw	fp,12(sp)
    1084:	df000304 	addi	fp,sp,12
#if OS_CRITICAL_METHOD == 3                                /* Allocate storage for CPU status register */
    OS_CPU_SR  cpu_sr = 0;
    1088:	e03fff15 	stw	zero,-4(fp)
#endif

    if (OSRunning == OS_TRUE) {
    108c:	d0a03343 	ldbu	r2,-32563(gp)
    1090:	10803fcc 	andi	r2,r2,255
    1094:	10800058 	cmpnei	r2,r2,1
    1098:	1000131e 	bne	r2,zero,10e8 <OSIntEnter+0x6c>
static ALT_INLINE alt_irq_context ALT_ALWAYS_INLINE 
       alt_irq_disable_all (void)
{
  alt_irq_context context;

  NIOS2_READ_STATUS (context);
    109c:	0005303a 	rdctl	r2,status
    10a0:	e0bffe15 	stw	r2,-8(fp)

  NIOS2_WRITE_STATUS (context & ~NIOS2_STATUS_PIE_MSK);
    10a4:	e0fffe17 	ldw	r3,-8(fp)
    10a8:	00bfff84 	movi	r2,-2
    10ac:	1884703a 	and	r2,r3,r2
    10b0:	1001703a 	wrctl	status,r2
  
  return context;
    10b4:	e0bffe17 	ldw	r2,-8(fp)
        OS_ENTER_CRITICAL();
    10b8:	e0bfff15 	stw	r2,-4(fp)
        if (OSIntNesting < 255u) {
    10bc:	d0a04103 	ldbu	r2,-32508(gp)
    10c0:	10803fcc 	andi	r2,r2,255
    10c4:	10803fe0 	cmpeqi	r2,r2,255
    10c8:	1000031e 	bne	r2,zero,10d8 <OSIntEnter+0x5c>
            OSIntNesting++;                      /* Increment ISR nesting level                        */
    10cc:	d0a04103 	ldbu	r2,-32508(gp)
    10d0:	10800044 	addi	r2,r2,1
    10d4:	d0a04105 	stb	r2,-32508(gp)
    10d8:	e0bfff17 	ldw	r2,-4(fp)
    10dc:	e0bffd15 	stw	r2,-12(fp)
  status &= ~NIOS2_STATUS_PIE_MSK;
  status |= (context & NIOS2_STATUS_PIE_MSK);
  
  NIOS2_WRITE_STATUS (status);
#else
  NIOS2_WRITE_STATUS (context);
    10e0:	e0bffd17 	ldw	r2,-12(fp)
    10e4:	1001703a 	wrctl	status,r2
        }
        OS_EXIT_CRITICAL();
    }
}
    10e8:	e037883a 	mov	sp,fp
    10ec:	df000017 	ldw	fp,0(sp)
    10f0:	dec00104 	addi	sp,sp,4
    10f4:	f800283a 	ret

000010f8 <OSIntExit>:
*              2) Rescheduling is prevented when the scheduler is locked (see OS_SchedLock())
*********************************************************************************************************
*/

void  OSIntExit (void)
{
    10f8:	defffb04 	addi	sp,sp,-20
    10fc:	dfc00415 	stw	ra,16(sp)
    1100:	df000315 	stw	fp,12(sp)
    1104:	df000304 	addi	fp,sp,12
#if OS_CRITICAL_METHOD == 3                                /* Allocate storage for CPU status register */
    OS_CPU_SR  cpu_sr = 0;
    1108:	e03fff15 	stw	zero,-4(fp)
#endif



    if (OSRunning == OS_TRUE) {
    110c:	d0a03343 	ldbu	r2,-32563(gp)
    1110:	10803fcc 	andi	r2,r2,255
    1114:	10800058 	cmpnei	r2,r2,1
    1118:	1000321e 	bne	r2,zero,11e4 <OSIntExit+0xec>
static ALT_INLINE alt_irq_context ALT_ALWAYS_INLINE 
       alt_irq_disable_all (void)
{
  alt_irq_context context;

  NIOS2_READ_STATUS (context);
    111c:	0005303a 	rdctl	r2,status
    1120:	e0bffe15 	stw	r2,-8(fp)

  NIOS2_WRITE_STATUS (context & ~NIOS2_STATUS_PIE_MSK);
    1124:	e0fffe17 	ldw	r3,-8(fp)
    1128:	00bfff84 	movi	r2,-2
    112c:	1884703a 	and	r2,r3,r2
    1130:	1001703a 	wrctl	status,r2
  
  return context;
    1134:	e0bffe17 	ldw	r2,-8(fp)
        OS_ENTER_CRITICAL();
    1138:	e0bfff15 	stw	r2,-4(fp)
        if (OSIntNesting > 0) {                            /* Prevent OSIntNesting from wrapping       */
    113c:	d0a04103 	ldbu	r2,-32508(gp)
    1140:	10803fcc 	andi	r2,r2,255
    1144:	1005003a 	cmpeq	r2,r2,zero
    1148:	1000031e 	bne	r2,zero,1158 <OSIntExit+0x60>
            OSIntNesting--;
    114c:	d0a04103 	ldbu	r2,-32508(gp)
    1150:	10bfffc4 	addi	r2,r2,-1
    1154:	d0a04105 	stb	r2,-32508(gp)
        }
        if (OSIntNesting == 0) {                           /* Reschedule only if all ISRs complete ... */
    1158:	d0a04103 	ldbu	r2,-32508(gp)
    115c:	10803fcc 	andi	r2,r2,255
    1160:	1004c03a 	cmpne	r2,r2,zero
    1164:	10001b1e 	bne	r2,zero,11d4 <OSIntExit+0xdc>
            if (OSLockNesting == 0) {                      /* ... and not locked.                      */
    1168:	d0a03303 	ldbu	r2,-32564(gp)
    116c:	10803fcc 	andi	r2,r2,255
    1170:	1004c03a 	cmpne	r2,r2,zero
    1174:	1000171e 	bne	r2,zero,11d4 <OSIntExit+0xdc>
                OS_SchedNew();
    1178:	00022140 	call	2214 <OS_SchedNew>
                if (OSPrioHighRdy != OSPrioCur) {          /* No Ctx Sw if current task is highest rdy */
    117c:	d0a03503 	ldbu	r2,-32556(gp)
    1180:	d0e03543 	ldbu	r3,-32555(gp)
    1184:	11003fcc 	andi	r4,r2,255
    1188:	18803fcc 	andi	r2,r3,255
    118c:	20801126 	beq	r4,r2,11d4 <OSIntExit+0xdc>
                    OSTCBHighRdy  = OSTCBPrioTbl[OSPrioHighRdy];
    1190:	d0a03503 	ldbu	r2,-32556(gp)
    1194:	10803fcc 	andi	r2,r2,255
    1198:	00c000b4 	movhi	r3,2
    119c:	18ef6f04 	addi	r3,r3,-16964
    11a0:	1085883a 	add	r2,r2,r2
    11a4:	1085883a 	add	r2,r2,r2
    11a8:	10c5883a 	add	r2,r2,r3
    11ac:	10800017 	ldw	r2,0(r2)
    11b0:	d0a03d15 	stw	r2,-32524(gp)
#if OS_TASK_PROFILE_EN > 0
                    OSTCBHighRdy->OSTCBCtxSwCtr++;         /* Inc. # of context switches to this task  */
    11b4:	d0e03d17 	ldw	r3,-32524(gp)
    11b8:	18800e17 	ldw	r2,56(r3)
    11bc:	10800044 	addi	r2,r2,1
    11c0:	18800e15 	stw	r2,56(r3)
#endif
                    OSCtxSwCtr++;                          /* Keep track of the number of ctx switches */
    11c4:	d0a03817 	ldw	r2,-32544(gp)
    11c8:	10800044 	addi	r2,r2,1
    11cc:	d0a03815 	stw	r2,-32544(gp)
                    OSIntCtxSw();                          /* Perform interrupt level ctx switch       */
    11d0:	000c6440 	call	c644 <OSCtxSw>
    11d4:	e0bfff17 	ldw	r2,-4(fp)
    11d8:	e0bffd15 	stw	r2,-12(fp)
  status &= ~NIOS2_STATUS_PIE_MSK;
  status |= (context & NIOS2_STATUS_PIE_MSK);
  
  NIOS2_WRITE_STATUS (status);
#else
  NIOS2_WRITE_STATUS (context);
    11dc:	e0bffd17 	ldw	r2,-12(fp)
    11e0:	1001703a 	wrctl	status,r2
                }
            }
        }
        OS_EXIT_CRITICAL();
    }
}
    11e4:	e037883a 	mov	sp,fp
    11e8:	dfc00117 	ldw	ra,4(sp)
    11ec:	df000017 	ldw	fp,0(sp)
    11f0:	dec00204 	addi	sp,sp,8
    11f4:	f800283a 	ret

000011f8 <OSSchedLock>:
*********************************************************************************************************
*/

#if OS_SCHED_LOCK_EN > 0
void  OSSchedLock (void)
{
    11f8:	defffc04 	addi	sp,sp,-16
    11fc:	df000315 	stw	fp,12(sp)
    1200:	df000304 	addi	fp,sp,12
#if OS_CRITICAL_METHOD == 3                      /* Allocate storage for CPU status register           */
    OS_CPU_SR  cpu_sr = 0;
    1204:	e03fff15 	stw	zero,-4(fp)
#endif



    if (OSRunning == OS_TRUE) {                  /* Make sure multitasking is running                  */
    1208:	d0a03343 	ldbu	r2,-32563(gp)
    120c:	10803fcc 	andi	r2,r2,255
    1210:	10800058 	cmpnei	r2,r2,1
    1214:	1000171e 	bne	r2,zero,1274 <OSSchedLock+0x7c>
static ALT_INLINE alt_irq_context ALT_ALWAYS_INLINE 
       alt_irq_disable_all (void)
{
  alt_irq_context context;

  NIOS2_READ_STATUS (context);
    1218:	0005303a 	rdctl	r2,status
    121c:	e0bffe15 	stw	r2,-8(fp)

  NIOS2_WRITE_STATUS (context & ~NIOS2_STATUS_PIE_MSK);
    1220:	e0fffe17 	ldw	r3,-8(fp)
    1224:	00bfff84 	movi	r2,-2
    1228:	1884703a 	and	r2,r3,r2
    122c:	1001703a 	wrctl	status,r2
  
  return context;
    1230:	e0bffe17 	ldw	r2,-8(fp)
        OS_ENTER_CRITICAL();
    1234:	e0bfff15 	stw	r2,-4(fp)
        if (OSIntNesting == 0) {                 /* Can't call from an ISR                             */
    1238:	d0a04103 	ldbu	r2,-32508(gp)
    123c:	10803fcc 	andi	r2,r2,255
    1240:	1004c03a 	cmpne	r2,r2,zero
    1244:	1000071e 	bne	r2,zero,1264 <OSSchedLock+0x6c>
            if (OSLockNesting < 255u) {          /* Prevent OSLockNesting from wrapping back to 0      */
    1248:	d0a03303 	ldbu	r2,-32564(gp)
    124c:	10803fcc 	andi	r2,r2,255
    1250:	10803fe0 	cmpeqi	r2,r2,255
    1254:	1000031e 	bne	r2,zero,1264 <OSSchedLock+0x6c>
                OSLockNesting++;                 /* Increment lock nesting level                       */
    1258:	d0a03303 	ldbu	r2,-32564(gp)
    125c:	10800044 	addi	r2,r2,1
    1260:	d0a03305 	stb	r2,-32564(gp)
    1264:	e0bfff17 	ldw	r2,-4(fp)
    1268:	e0bffd15 	stw	r2,-12(fp)
  status &= ~NIOS2_STATUS_PIE_MSK;
  status |= (context & NIOS2_STATUS_PIE_MSK);
  
  NIOS2_WRITE_STATUS (status);
#else
  NIOS2_WRITE_STATUS (context);
    126c:	e0bffd17 	ldw	r2,-12(fp)
    1270:	1001703a 	wrctl	status,r2
            }
        }
        OS_EXIT_CRITICAL();
    }
}
    1274:	e037883a 	mov	sp,fp
    1278:	df000017 	ldw	fp,0(sp)
    127c:	dec00104 	addi	sp,sp,4
    1280:	f800283a 	ret

00001284 <OSSchedUnlock>:
*********************************************************************************************************
*/

#if OS_SCHED_LOCK_EN > 0
void  OSSchedUnlock (void)
{
    1284:	defff804 	addi	sp,sp,-32
    1288:	dfc00715 	stw	ra,28(sp)
    128c:	df000615 	stw	fp,24(sp)
    1290:	df000604 	addi	fp,sp,24
#if OS_CRITICAL_METHOD == 3                                /* Allocate storage for CPU status register */
    OS_CPU_SR  cpu_sr = 0;
    1294:	e03fff15 	stw	zero,-4(fp)
#endif



    if (OSRunning == OS_TRUE) {                            /* Make sure multitasking is running        */
    1298:	d0a03343 	ldbu	r2,-32563(gp)
    129c:	10803fcc 	andi	r2,r2,255
    12a0:	10800058 	cmpnei	r2,r2,1
    12a4:	10002b1e 	bne	r2,zero,1354 <OSSchedUnlock+0xd0>
static ALT_INLINE alt_irq_context ALT_ALWAYS_INLINE 
       alt_irq_disable_all (void)
{
  alt_irq_context context;

  NIOS2_READ_STATUS (context);
    12a8:	0005303a 	rdctl	r2,status
    12ac:	e0bffe15 	stw	r2,-8(fp)

  NIOS2_WRITE_STATUS (context & ~NIOS2_STATUS_PIE_MSK);
    12b0:	e0fffe17 	ldw	r3,-8(fp)
    12b4:	00bfff84 	movi	r2,-2
    12b8:	1884703a 	and	r2,r3,r2
    12bc:	1001703a 	wrctl	status,r2
  
  return context;
    12c0:	e0bffe17 	ldw	r2,-8(fp)
        OS_ENTER_CRITICAL();
    12c4:	e0bfff15 	stw	r2,-4(fp)
        if (OSLockNesting > 0) {                           /* Do not decrement if already 0            */
    12c8:	d0a03303 	ldbu	r2,-32564(gp)
    12cc:	10803fcc 	andi	r2,r2,255
    12d0:	1005003a 	cmpeq	r2,r2,zero
    12d4:	10001b1e 	bne	r2,zero,1344 <OSSchedUnlock+0xc0>
            OSLockNesting--;                               /* Decrement lock nesting level             */
    12d8:	d0a03303 	ldbu	r2,-32564(gp)
    12dc:	10bfffc4 	addi	r2,r2,-1
    12e0:	d0a03305 	stb	r2,-32564(gp)
            if (OSLockNesting == 0) {                      /* See if scheduler is enabled and ...      */
    12e4:	d0a03303 	ldbu	r2,-32564(gp)
    12e8:	10803fcc 	andi	r2,r2,255
    12ec:	1004c03a 	cmpne	r2,r2,zero
    12f0:	10000f1e 	bne	r2,zero,1330 <OSSchedUnlock+0xac>
                if (OSIntNesting == 0) {                   /* ... not in an ISR                        */
    12f4:	d0a04103 	ldbu	r2,-32508(gp)
    12f8:	10803fcc 	andi	r2,r2,255
    12fc:	1004c03a 	cmpne	r2,r2,zero
    1300:	1000061e 	bne	r2,zero,131c <OSSchedUnlock+0x98>
    1304:	e0bfff17 	ldw	r2,-4(fp)
    1308:	e0bffd15 	stw	r2,-12(fp)
  status &= ~NIOS2_STATUS_PIE_MSK;
  status |= (context & NIOS2_STATUS_PIE_MSK);
  
  NIOS2_WRITE_STATUS (status);
#else
  NIOS2_WRITE_STATUS (context);
    130c:	e0bffd17 	ldw	r2,-12(fp)
    1310:	1001703a 	wrctl	status,r2
                    OS_EXIT_CRITICAL();
                    OS_Sched();                            /* See if a HPT is ready                    */
    1314:	00021400 	call	2140 <OS_Sched>
    1318:	00000e06 	br	1354 <OSSchedUnlock+0xd0>
    131c:	e0bfff17 	ldw	r2,-4(fp)
    1320:	e0bffc15 	stw	r2,-16(fp)
    1324:	e0bffc17 	ldw	r2,-16(fp)
    1328:	1001703a 	wrctl	status,r2
    132c:	00000906 	br	1354 <OSSchedUnlock+0xd0>
    1330:	e0bfff17 	ldw	r2,-4(fp)
    1334:	e0bffb15 	stw	r2,-20(fp)
    1338:	e0bffb17 	ldw	r2,-20(fp)
    133c:	1001703a 	wrctl	status,r2
    1340:	00000406 	br	1354 <OSSchedUnlock+0xd0>
    1344:	e0bfff17 	ldw	r2,-4(fp)
    1348:	e0bffa15 	stw	r2,-24(fp)
    134c:	e0bffa17 	ldw	r2,-24(fp)
    1350:	1001703a 	wrctl	status,r2
            }
        } else {
            OS_EXIT_CRITICAL();
        }
    }
}
    1354:	e037883a 	mov	sp,fp
    1358:	dfc00117 	ldw	ra,4(sp)
    135c:	df000017 	ldw	fp,0(sp)
    1360:	dec00204 	addi	sp,sp,8
    1364:	f800283a 	ret

00001368 <OSStart>:
*                 d_ Execute the task.
*********************************************************************************************************
*/

void  OSStart (void)
{
    1368:	defffe04 	addi	sp,sp,-8
    136c:	dfc00115 	stw	ra,4(sp)
    1370:	df000015 	stw	fp,0(sp)
    1374:	d839883a 	mov	fp,sp
    if (OSRunning == OS_FALSE) {
    1378:	d0a03343 	ldbu	r2,-32563(gp)
    137c:	10803fcc 	andi	r2,r2,255
    1380:	1004c03a 	cmpne	r2,r2,zero
    1384:	10000f1e 	bne	r2,zero,13c4 <OSStart+0x5c>
        OS_SchedNew();                               /* Find highest priority's task priority number   */
    1388:	00022140 	call	2214 <OS_SchedNew>
        OSPrioCur     = OSPrioHighRdy;
    138c:	d0a03503 	ldbu	r2,-32556(gp)
    1390:	d0a03545 	stb	r2,-32555(gp)
        OSTCBHighRdy  = OSTCBPrioTbl[OSPrioHighRdy]; /* Point to highest priority task ready to run    */
    1394:	d0a03503 	ldbu	r2,-32556(gp)
    1398:	10803fcc 	andi	r2,r2,255
    139c:	00c000b4 	movhi	r3,2
    13a0:	18ef6f04 	addi	r3,r3,-16964
    13a4:	1085883a 	add	r2,r2,r2
    13a8:	1085883a 	add	r2,r2,r2
    13ac:	10c5883a 	add	r2,r2,r3
    13b0:	10800017 	ldw	r2,0(r2)
    13b4:	d0a03d15 	stw	r2,-32524(gp)
        OSTCBCur      = OSTCBHighRdy;
    13b8:	d0a03d17 	ldw	r2,-32524(gp)
    13bc:	d0a04215 	stw	r2,-32504(gp)
        OSStartHighRdy();                            /* Execute target specific code to start task     */
    13c0:	000c6d00 	call	c6d0 <OSStartHighRdy>
    }
}
    13c4:	e037883a 	mov	sp,fp
    13c8:	dfc00117 	ldw	ra,4(sp)
    13cc:	df000017 	ldw	fp,0(sp)
    13d0:	dec00204 	addi	sp,sp,8
    13d4:	f800283a 	ret

000013d8 <OSStatInit>:
*********************************************************************************************************
*/

#if OS_TASK_STAT_EN > 0
void  OSStatInit (void)
{
    13d8:	defff904 	addi	sp,sp,-28
    13dc:	dfc00615 	stw	ra,24(sp)
    13e0:	df000515 	stw	fp,20(sp)
    13e4:	df000504 	addi	fp,sp,20
#if OS_CRITICAL_METHOD == 3                      /* Allocate storage for CPU status register           */
    OS_CPU_SR  cpu_sr = 0;
    13e8:	e03fff15 	stw	zero,-4(fp)
#endif



    OSTimeDly(2);                                /* Synchronize with clock tick                        */
    13ec:	01000084 	movi	r4,2
    13f0:	00084380 	call	8438 <OSTimeDly>
static ALT_INLINE alt_irq_context ALT_ALWAYS_INLINE 
       alt_irq_disable_all (void)
{
  alt_irq_context context;

  NIOS2_READ_STATUS (context);
    13f4:	0005303a 	rdctl	r2,status
    13f8:	e0bffe15 	stw	r2,-8(fp)

  NIOS2_WRITE_STATUS (context & ~NIOS2_STATUS_PIE_MSK);
    13fc:	e0fffe17 	ldw	r3,-8(fp)
    1400:	00bfff84 	movi	r2,-2
    1404:	1884703a 	and	r2,r3,r2
    1408:	1001703a 	wrctl	status,r2
  
  return context;
    140c:	e0bffe17 	ldw	r2,-8(fp)
    OS_ENTER_CRITICAL();
    1410:	e0bfff15 	stw	r2,-4(fp)
    OSIdleCtr    = 0L;                           /* Clear idle counter                                 */
    1414:	d0203415 	stw	zero,-32560(gp)
    1418:	e0bfff17 	ldw	r2,-4(fp)
    141c:	e0bffd15 	stw	r2,-12(fp)
  status &= ~NIOS2_STATUS_PIE_MSK;
  status |= (context & NIOS2_STATUS_PIE_MSK);
  
  NIOS2_WRITE_STATUS (status);
#else
  NIOS2_WRITE_STATUS (context);
    1420:	e0bffd17 	ldw	r2,-12(fp)
    1424:	1001703a 	wrctl	status,r2
    OS_EXIT_CRITICAL();
    OSTimeDly(OS_TICKS_PER_SEC / 10);            /* Determine MAX. idle counter value for 1/10 second  */
    1428:	01001904 	movi	r4,100
    142c:	00084380 	call	8438 <OSTimeDly>
static ALT_INLINE alt_irq_context ALT_ALWAYS_INLINE 
       alt_irq_disable_all (void)
{
  alt_irq_context context;

  NIOS2_READ_STATUS (context);
    1430:	0005303a 	rdctl	r2,status
    1434:	e0bffc15 	stw	r2,-16(fp)

  NIOS2_WRITE_STATUS (context & ~NIOS2_STATUS_PIE_MSK);
    1438:	e0fffc17 	ldw	r3,-16(fp)
    143c:	00bfff84 	movi	r2,-2
    1440:	1884703a 	and	r2,r3,r2
    1444:	1001703a 	wrctl	status,r2
  
  return context;
    1448:	e0bffc17 	ldw	r2,-16(fp)
    OS_ENTER_CRITICAL();
    144c:	e0bfff15 	stw	r2,-4(fp)
    OSIdleCtrMax = OSIdleCtr;                    /* Store maximum idle counter count in 1/10 second    */
    1450:	d0a03417 	ldw	r2,-32560(gp)
    1454:	d0a03915 	stw	r2,-32540(gp)
    OSStatRdy    = OS_TRUE;
    1458:	00800044 	movi	r2,1
    145c:	d0a04505 	stb	r2,-32492(gp)
    1460:	e0bfff17 	ldw	r2,-4(fp)
    1464:	e0bffb15 	stw	r2,-20(fp)
  status &= ~NIOS2_STATUS_PIE_MSK;
  status |= (context & NIOS2_STATUS_PIE_MSK);
  
  NIOS2_WRITE_STATUS (status);
#else
  NIOS2_WRITE_STATUS (context);
    1468:	e0bffb17 	ldw	r2,-20(fp)
    146c:	1001703a 	wrctl	status,r2
    OS_EXIT_CRITICAL();
}
    1470:	e037883a 	mov	sp,fp
    1474:	dfc00117 	ldw	ra,4(sp)
    1478:	df000017 	ldw	fp,0(sp)
    147c:	dec00204 	addi	sp,sp,8
    1480:	f800283a 	ret

00001484 <OSTimeTick>:
* Returns    : none
*********************************************************************************************************
*/

void  OSTimeTick (void)
{
    1484:	defff604 	addi	sp,sp,-40
    1488:	dfc00915 	stw	ra,36(sp)
    148c:	df000815 	stw	fp,32(sp)
    1490:	df000804 	addi	fp,sp,32
    OS_TCB    *ptcb;
#if OS_TICK_STEP_EN > 0
    BOOLEAN    step;
#endif
#if OS_CRITICAL_METHOD == 3                                /* Allocate storage for CPU status register     */
    OS_CPU_SR  cpu_sr = 0;
    1494:	e03ffc15 	stw	zero,-16(fp)
#endif



#if OS_TIME_TICK_HOOK_EN > 0
    OSTimeTickHook();                                      /* Call user definable hook                     */
    1498:	000ca9c0 	call	ca9c <OSTimeTickHook>
static ALT_INLINE alt_irq_context ALT_ALWAYS_INLINE 
       alt_irq_disable_all (void)
{
  alt_irq_context context;

  NIOS2_READ_STATUS (context);
    149c:	0005303a 	rdctl	r2,status
    14a0:	e0bffb15 	stw	r2,-20(fp)

  NIOS2_WRITE_STATUS (context & ~NIOS2_STATUS_PIE_MSK);
    14a4:	e0fffb17 	ldw	r3,-20(fp)
    14a8:	00bfff84 	movi	r2,-2
    14ac:	1884703a 	and	r2,r3,r2
    14b0:	1001703a 	wrctl	status,r2
  
  return context;
    14b4:	e0bffb17 	ldw	r2,-20(fp)
#endif
#if OS_TIME_GET_SET_EN > 0
    OS_ENTER_CRITICAL();                                   /* Update the 32-bit tick counter               */
    14b8:	e0bffc15 	stw	r2,-16(fp)
    OSTime++;
    14bc:	d0a04317 	ldw	r2,-32500(gp)
    14c0:	10800044 	addi	r2,r2,1
    14c4:	d0a04315 	stw	r2,-32500(gp)
    14c8:	e0bffc17 	ldw	r2,-16(fp)
    14cc:	e0bffa15 	stw	r2,-24(fp)
  status &= ~NIOS2_STATUS_PIE_MSK;
  status |= (context & NIOS2_STATUS_PIE_MSK);
  
  NIOS2_WRITE_STATUS (status);
#else
  NIOS2_WRITE_STATUS (context);
    14d0:	e0bffa17 	ldw	r2,-24(fp)
    14d4:	1001703a 	wrctl	status,r2
    OS_EXIT_CRITICAL();
#endif
    if (OSRunning == OS_TRUE) {
    14d8:	d0a03343 	ldbu	r2,-32563(gp)
    14dc:	10803fcc 	andi	r2,r2,255
    14e0:	10800058 	cmpnei	r2,r2,1
    14e4:	1000721e 	bne	r2,zero,16b0 <OSTimeTick+0x22c>
#if OS_TICK_STEP_EN > 0
        switch (OSTickStepState) {                         /* Determine whether we need to process a tick  */
    14e8:	d0a03703 	ldbu	r2,-32548(gp)
    14ec:	10803fcc 	andi	r2,r2,255
    14f0:	e0bfff15 	stw	r2,-4(fp)
    14f4:	e0ffff17 	ldw	r3,-4(fp)
    14f8:	18800060 	cmpeqi	r2,r3,1
    14fc:	10000a1e 	bne	r2,zero,1528 <OSTimeTick+0xa4>
    1500:	e0ffff17 	ldw	r3,-4(fp)
    1504:	188000a0 	cmpeqi	r2,r3,2
    1508:	1000091e 	bne	r2,zero,1530 <OSTimeTick+0xac>
    150c:	e0ffff17 	ldw	r3,-4(fp)
    1510:	1805003a 	cmpeq	r2,r3,zero
    1514:	1000011e 	bne	r2,zero,151c <OSTimeTick+0x98>
    1518:	00000a06 	br	1544 <OSTimeTick+0xc0>
            case OS_TICK_STEP_DIS:                         /* Yes, stepping is disabled                    */
                 step = OS_TRUE;
    151c:	00800044 	movi	r2,1
    1520:	e0bffd05 	stb	r2,-12(fp)
                 break;
    1524:	00000a06 	br	1550 <OSTimeTick+0xcc>

            case OS_TICK_STEP_WAIT:                        /* No,  waiting for uC/OS-View to set ...       */
                 step = OS_FALSE;                          /*      .. OSTickStepState to OS_TICK_STEP_ONCE */
    1528:	e03ffd05 	stb	zero,-12(fp)
                 break;
    152c:	00000806 	br	1550 <OSTimeTick+0xcc>

            case OS_TICK_STEP_ONCE:                        /* Yes, process tick once and wait for next ... */
                 step            = OS_TRUE;                /*      ... step command from uC/OS-View        */
    1530:	00800044 	movi	r2,1
    1534:	e0bffd05 	stb	r2,-12(fp)
                 OSTickStepState = OS_TICK_STEP_WAIT;
    1538:	00800044 	movi	r2,1
    153c:	d0a03705 	stb	r2,-32548(gp)
                 break;
    1540:	00000306 	br	1550 <OSTimeTick+0xcc>

            default:                                       /* Invalid case, correct situation              */
                 step            = OS_TRUE;
    1544:	00800044 	movi	r2,1
    1548:	e0bffd05 	stb	r2,-12(fp)
                 OSTickStepState = OS_TICK_STEP_DIS;
    154c:	d0203705 	stb	zero,-32548(gp)
                 break;
        }
        if (step == OS_FALSE) {                            /* Return if waiting for step command           */
    1550:	e0bffd03 	ldbu	r2,-12(fp)
    1554:	1005003a 	cmpeq	r2,r2,zero
    1558:	1000551e 	bne	r2,zero,16b0 <OSTimeTick+0x22c>
            return;
        }
#endif
        ptcb = OSTCBList;                                  /* Point at first TCB in TCB list               */
    155c:	d0a03617 	ldw	r2,-32552(gp)
    1560:	e0bffe15 	stw	r2,-8(fp)
        while (ptcb->OSTCBPrio != OS_TASK_IDLE_PRIO) {     /* Go through all TCBs in TCB list              */
    1564:	00004d06 	br	169c <OSTimeTick+0x218>
static ALT_INLINE alt_irq_context ALT_ALWAYS_INLINE 
       alt_irq_disable_all (void)
{
  alt_irq_context context;

  NIOS2_READ_STATUS (context);
    1568:	0005303a 	rdctl	r2,status
    156c:	e0bff915 	stw	r2,-28(fp)

  NIOS2_WRITE_STATUS (context & ~NIOS2_STATUS_PIE_MSK);
    1570:	e0fff917 	ldw	r3,-28(fp)
    1574:	00bfff84 	movi	r2,-2
    1578:	1884703a 	and	r2,r3,r2
    157c:	1001703a 	wrctl	status,r2
  
  return context;
    1580:	e0bff917 	ldw	r2,-28(fp)
            OS_ENTER_CRITICAL();
    1584:	e0bffc15 	stw	r2,-16(fp)
            if (ptcb->OSTCBDly != 0) {                     /* No, Delayed or waiting for event with TO     */
    1588:	e0bffe17 	ldw	r2,-8(fp)
    158c:	10800b8b 	ldhu	r2,46(r2)
    1590:	10bfffcc 	andi	r2,r2,65535
    1594:	1005003a 	cmpeq	r2,r2,zero
    1598:	1000391e 	bne	r2,zero,1680 <OSTimeTick+0x1fc>
                if (--ptcb->OSTCBDly == 0) {               /* Decrement nbr of ticks to end of delay       */
    159c:	e0bffe17 	ldw	r2,-8(fp)
    15a0:	10800b8b 	ldhu	r2,46(r2)
    15a4:	10bfffc4 	addi	r2,r2,-1
    15a8:	1007883a 	mov	r3,r2
    15ac:	e0bffe17 	ldw	r2,-8(fp)
    15b0:	10c00b8d 	sth	r3,46(r2)
    15b4:	e0bffe17 	ldw	r2,-8(fp)
    15b8:	10800b8b 	ldhu	r2,46(r2)
    15bc:	10bfffcc 	andi	r2,r2,65535
    15c0:	1004c03a 	cmpne	r2,r2,zero
    15c4:	10002e1e 	bne	r2,zero,1680 <OSTimeTick+0x1fc>
                                                           /* Check for timeout                            */
                    if ((ptcb->OSTCBStat & OS_STAT_PEND_ANY) != OS_STAT_RDY) {
    15c8:	e0bffe17 	ldw	r2,-8(fp)
    15cc:	10800c03 	ldbu	r2,48(r2)
    15d0:	10803fcc 	andi	r2,r2,255
    15d4:	10800dcc 	andi	r2,r2,55
    15d8:	1005003a 	cmpeq	r2,r2,zero
    15dc:	10000b1e 	bne	r2,zero,160c <OSTimeTick+0x188>
                        ptcb->OSTCBStat  &= ~(INT8U)OS_STAT_PEND_ANY;          /* Yes, Clear status flag   */
    15e0:	e0bffe17 	ldw	r2,-8(fp)
    15e4:	10c00c03 	ldbu	r3,48(r2)
    15e8:	00bff204 	movi	r2,-56
    15ec:	1884703a 	and	r2,r3,r2
    15f0:	1007883a 	mov	r3,r2
    15f4:	e0bffe17 	ldw	r2,-8(fp)
    15f8:	10c00c05 	stb	r3,48(r2)
                        ptcb->OSTCBStatPend = OS_STAT_PEND_TO;                 /* Indicate PEND timeout    */
    15fc:	e0fffe17 	ldw	r3,-8(fp)
    1600:	00800044 	movi	r2,1
    1604:	18800c45 	stb	r2,49(r3)
    1608:	00000206 	br	1614 <OSTimeTick+0x190>
                    } else {
                        ptcb->OSTCBStatPend = OS_STAT_PEND_OK;
    160c:	e0bffe17 	ldw	r2,-8(fp)
    1610:	10000c45 	stb	zero,49(r2)
                    }

                    if ((ptcb->OSTCBStat & OS_STAT_SUSPEND) == OS_STAT_RDY) {  /* Is task suspended?       */
    1614:	e0bffe17 	ldw	r2,-8(fp)
    1618:	10800c03 	ldbu	r2,48(r2)
    161c:	10803fcc 	andi	r2,r2,255
    1620:	1080020c 	andi	r2,r2,8
    1624:	1004c03a 	cmpne	r2,r2,zero
    1628:	1000151e 	bne	r2,zero,1680 <OSTimeTick+0x1fc>
                        OSRdyGrp               |= ptcb->OSTCBBitY;             /* No,  Make ready          */
    162c:	e0bffe17 	ldw	r2,-8(fp)
    1630:	10c00d83 	ldbu	r3,54(r2)
    1634:	d0a03f03 	ldbu	r2,-32516(gp)
    1638:	1884b03a 	or	r2,r3,r2
    163c:	d0a03f05 	stb	r2,-32516(gp)
                        OSRdyTbl[ptcb->OSTCBY] |= ptcb->OSTCBBitX;
    1640:	e0bffe17 	ldw	r2,-8(fp)
    1644:	10800d03 	ldbu	r2,52(r2)
    1648:	11003fcc 	andi	r4,r2,255
    164c:	e0bffe17 	ldw	r2,-8(fp)
    1650:	10800d03 	ldbu	r2,52(r2)
    1654:	10c03fcc 	andi	r3,r2,255
    1658:	d0a03f44 	addi	r2,gp,-32515
    165c:	1885883a 	add	r2,r3,r2
    1660:	10c00003 	ldbu	r3,0(r2)
    1664:	e0bffe17 	ldw	r2,-8(fp)
    1668:	10800d43 	ldbu	r2,53(r2)
    166c:	1884b03a 	or	r2,r3,r2
    1670:	1007883a 	mov	r3,r2
    1674:	d0a03f44 	addi	r2,gp,-32515
    1678:	2085883a 	add	r2,r4,r2
    167c:	10c00005 	stb	r3,0(r2)
                    }
                }
            }
            ptcb = ptcb->OSTCBNext;                        /* Point at next TCB in TCB list                */
    1680:	e0bffe17 	ldw	r2,-8(fp)
    1684:	10800517 	ldw	r2,20(r2)
    1688:	e0bffe15 	stw	r2,-8(fp)
    168c:	e0bffc17 	ldw	r2,-16(fp)
    1690:	e0bff815 	stw	r2,-32(fp)
  status &= ~NIOS2_STATUS_PIE_MSK;
  status |= (context & NIOS2_STATUS_PIE_MSK);
  
  NIOS2_WRITE_STATUS (status);
#else
  NIOS2_WRITE_STATUS (context);
    1694:	e0bff817 	ldw	r2,-32(fp)
    1698:	1001703a 	wrctl	status,r2
        if (step == OS_FALSE) {                            /* Return if waiting for step command           */
            return;
        }
#endif
        ptcb = OSTCBList;                                  /* Point at first TCB in TCB list               */
        while (ptcb->OSTCBPrio != OS_TASK_IDLE_PRIO) {     /* Go through all TCBs in TCB list              */
    169c:	e0bffe17 	ldw	r2,-8(fp)
    16a0:	10800c83 	ldbu	r2,50(r2)
    16a4:	10803fcc 	andi	r2,r2,255
    16a8:	10800518 	cmpnei	r2,r2,20
    16ac:	103fae1e 	bne	r2,zero,1568 <OSTimeTick+0xe4>
            }
            ptcb = ptcb->OSTCBNext;                        /* Point at next TCB in TCB list                */
            OS_EXIT_CRITICAL();
        }
    }
}
    16b0:	e037883a 	mov	sp,fp
    16b4:	dfc00117 	ldw	ra,4(sp)
    16b8:	df000017 	ldw	fp,0(sp)
    16bc:	dec00204 	addi	sp,sp,8
    16c0:	f800283a 	ret

000016c4 <OSVersion>:
* Returns    : the version number of uC/OS-II multiplied by 100.
*********************************************************************************************************
*/

INT16U  OSVersion (void)
{
    16c4:	deffff04 	addi	sp,sp,-4
    16c8:	df000015 	stw	fp,0(sp)
    16cc:	d839883a 	mov	fp,sp
    return (OS_VERSION);
    16d0:	00804784 	movi	r2,286
}
    16d4:	e037883a 	mov	sp,fp
    16d8:	df000017 	ldw	fp,0(sp)
    16dc:	dec00104 	addi	sp,sp,4
    16e0:	f800283a 	ret

000016e4 <OS_Dummy>:
*********************************************************************************************************
*/

#if OS_TASK_DEL_EN > 0
void  OS_Dummy (void)
{
    16e4:	deffff04 	addi	sp,sp,-4
    16e8:	df000015 	stw	fp,0(sp)
    16ec:	d839883a 	mov	fp,sp
}
    16f0:	e037883a 	mov	sp,fp
    16f4:	df000017 	ldw	fp,0(sp)
    16f8:	dec00104 	addi	sp,sp,4
    16fc:	f800283a 	ret

00001700 <OS_EventTaskRdy>:
* Note       : This function is INTERNAL to uC/OS-II and your application should not call it.
*********************************************************************************************************
*/
#if (OS_EVENT_EN)
INT8U  OS_EventTaskRdy (OS_EVENT *pevent, void *pmsg, INT8U msk, INT8U pend_stat)
{
    1700:	defff804 	addi	sp,sp,-32
    1704:	dfc00715 	stw	ra,28(sp)
    1708:	df000615 	stw	fp,24(sp)
    170c:	df000604 	addi	fp,sp,24
    1710:	e13ffc15 	stw	r4,-16(fp)
    1714:	e17ffd15 	stw	r5,-12(fp)
    1718:	e1bffe05 	stb	r6,-8(fp)
    171c:	e1ffff05 	stb	r7,-4(fp)
    INT16U  *ptbl;
#endif


#if OS_LOWEST_PRIO <= 63
    y    = OSUnMapTbl[pevent->OSEventGrp];              /* Find HPT waiting for message                */
    1720:	e0bffc17 	ldw	r2,-16(fp)
    1724:	10800283 	ldbu	r2,10(r2)
    1728:	10c03fcc 	andi	r3,r2,255
    172c:	00800074 	movhi	r2,1
    1730:	10bb3a04 	addi	r2,r2,-4888
    1734:	10c5883a 	add	r2,r2,r3
    1738:	10800003 	ldbu	r2,0(r2)
    173c:	e0bffa85 	stb	r2,-22(fp)
    x    = OSUnMapTbl[pevent->OSEventTbl[y]];
    1740:	e0fffa83 	ldbu	r3,-22(fp)
    1744:	e0bffc17 	ldw	r2,-16(fp)
    1748:	1885883a 	add	r2,r3,r2
    174c:	10800204 	addi	r2,r2,8
    1750:	108000c3 	ldbu	r2,3(r2)
    1754:	10c03fcc 	andi	r3,r2,255
    1758:	00800074 	movhi	r2,1
    175c:	10bb3a04 	addi	r2,r2,-4888
    1760:	10c5883a 	add	r2,r2,r3
    1764:	10800003 	ldbu	r2,0(r2)
    1768:	e0bffa45 	stb	r2,-23(fp)
    prio = (INT8U)((y << 3) + x);                       /* Find priority of task getting the msg       */
    176c:	e0bffa83 	ldbu	r2,-22(fp)
    1770:	100490fa 	slli	r2,r2,3
    1774:	1007883a 	mov	r3,r2
    1778:	e0bffa43 	ldbu	r2,-23(fp)
    177c:	1885883a 	add	r2,r3,r2
    1780:	e0bffa05 	stb	r2,-24(fp)
        x = OSUnMapTbl[(*ptbl >> 8) & 0xFF] + 8;
    }
    prio = (INT8U)((y << 4) + x);                       /* Find priority of task getting the msg       */
#endif

    ptcb                  =  OSTCBPrioTbl[prio];        /* Point to this task's OS_TCB                 */
    1784:	e0bffa03 	ldbu	r2,-24(fp)
    1788:	00c000b4 	movhi	r3,2
    178c:	18ef6f04 	addi	r3,r3,-16964
    1790:	1085883a 	add	r2,r2,r2
    1794:	1085883a 	add	r2,r2,r2
    1798:	10c5883a 	add	r2,r2,r3
    179c:	10800017 	ldw	r2,0(r2)
    17a0:	e0bffb15 	stw	r2,-20(fp)
    ptcb->OSTCBDly        =  0;                         /* Prevent OSTimeTick() from readying task     */
    17a4:	e0bffb17 	ldw	r2,-20(fp)
    17a8:	10000b8d 	sth	zero,46(r2)
#if ((OS_Q_EN > 0) && (OS_MAX_QS > 0)) || (OS_MBOX_EN > 0)
    ptcb->OSTCBMsg        =  pmsg;                      /* Send message directly to waiting task       */
    17ac:	e0fffb17 	ldw	r3,-20(fp)
    17b0:	e0bffd17 	ldw	r2,-12(fp)
    17b4:	18800915 	stw	r2,36(r3)
#else
    pmsg                  =  pmsg;                      /* Prevent compiler warning if not used        */
#endif
    ptcb->OSTCBStat      &= ~msk;                       /* Clear bit associated with event type        */
    17b8:	e0bffb17 	ldw	r2,-20(fp)
    17bc:	10800c03 	ldbu	r2,48(r2)
    17c0:	1007883a 	mov	r3,r2
    17c4:	e0bffe03 	ldbu	r2,-8(fp)
    17c8:	0084303a 	nor	r2,zero,r2
    17cc:	1884703a 	and	r2,r3,r2
    17d0:	1007883a 	mov	r3,r2
    17d4:	e0bffb17 	ldw	r2,-20(fp)
    17d8:	10c00c05 	stb	r3,48(r2)
    ptcb->OSTCBStatPend   =  pend_stat;                 /* Set pend status of post or abort            */
    17dc:	e0fffb17 	ldw	r3,-20(fp)
    17e0:	e0bfff03 	ldbu	r2,-4(fp)
    17e4:	18800c45 	stb	r2,49(r3)
                                                        /* See if task is ready (could be susp'd)      */
    if ((ptcb->OSTCBStat &   OS_STAT_SUSPEND) == OS_STAT_RDY) {
    17e8:	e0bffb17 	ldw	r2,-20(fp)
    17ec:	10800c03 	ldbu	r2,48(r2)
    17f0:	10803fcc 	andi	r2,r2,255
    17f4:	1080020c 	andi	r2,r2,8
    17f8:	1004c03a 	cmpne	r2,r2,zero
    17fc:	1000111e 	bne	r2,zero,1844 <OS_EventTaskRdy+0x144>
        OSRdyGrp         |=  ptcb->OSTCBBitY;           /* Put task in the ready to run list           */
    1800:	e0bffb17 	ldw	r2,-20(fp)
    1804:	10c00d83 	ldbu	r3,54(r2)
    1808:	d0a03f03 	ldbu	r2,-32516(gp)
    180c:	1884b03a 	or	r2,r3,r2
    1810:	d0a03f05 	stb	r2,-32516(gp)
        OSRdyTbl[y]      |=  ptcb->OSTCBBitX;
    1814:	e13ffa83 	ldbu	r4,-22(fp)
    1818:	e0fffa83 	ldbu	r3,-22(fp)
    181c:	d0a03f44 	addi	r2,gp,-32515
    1820:	1885883a 	add	r2,r3,r2
    1824:	10c00003 	ldbu	r3,0(r2)
    1828:	e0bffb17 	ldw	r2,-20(fp)
    182c:	10800d43 	ldbu	r2,53(r2)
    1830:	1884b03a 	or	r2,r3,r2
    1834:	1007883a 	mov	r3,r2
    1838:	d0a03f44 	addi	r2,gp,-32515
    183c:	2085883a 	add	r2,r4,r2
    1840:	10c00005 	stb	r3,0(r2)
    }

    OS_EventTaskRemove(ptcb, pevent);                   /* Remove this task from event   wait list     */
    1844:	e13ffb17 	ldw	r4,-20(fp)
    1848:	e17ffc17 	ldw	r5,-16(fp)
    184c:	0001af80 	call	1af8 <OS_EventTaskRemove>
#if (OS_EVENT_MULTI_EN > 0)
    if (ptcb->OSTCBEventMultiPtr != (OS_EVENT **)0) {   /* Remove this task from events' wait lists    */
    1850:	e0bffb17 	ldw	r2,-20(fp)
    1854:	10800817 	ldw	r2,32(r2)
    1858:	1005003a 	cmpeq	r2,r2,zero
    185c:	1000071e 	bne	r2,zero,187c <OS_EventTaskRdy+0x17c>
        OS_EventTaskRemoveMulti(ptcb, ptcb->OSTCBEventMultiPtr);
    1860:	e0bffb17 	ldw	r2,-20(fp)
    1864:	11400817 	ldw	r5,32(r2)
    1868:	e13ffb17 	ldw	r4,-20(fp)
    186c:	0001bb00 	call	1bb0 <OS_EventTaskRemoveMulti>
        ptcb->OSTCBEventPtr       = (OS_EVENT  *)pevent;/* Return event as first multi-pend event ready*/
    1870:	e0fffb17 	ldw	r3,-20(fp)
    1874:	e0bffc17 	ldw	r2,-16(fp)
    1878:	18800715 	stw	r2,28(r3)
    }
#endif

    return (prio);
    187c:	e0bffa03 	ldbu	r2,-24(fp)
}
    1880:	e037883a 	mov	sp,fp
    1884:	dfc00117 	ldw	ra,4(sp)
    1888:	df000017 	ldw	fp,0(sp)
    188c:	dec00204 	addi	sp,sp,8
    1890:	f800283a 	ret

00001894 <OS_EventTaskWait>:
* Note       : This function is INTERNAL to uC/OS-II and your application should not call it.
*********************************************************************************************************
*/
#if (OS_EVENT_EN)
void  OS_EventTaskWait (OS_EVENT *pevent)
{
    1894:	defffd04 	addi	sp,sp,-12
    1898:	df000215 	stw	fp,8(sp)
    189c:	df000204 	addi	fp,sp,8
    18a0:	e13fff15 	stw	r4,-4(fp)
    INT8U  y;


    OSTCBCur->OSTCBEventPtr               = pevent;                 /* Store ptr to ECB in TCB         */
    18a4:	d0e04217 	ldw	r3,-32504(gp)
    18a8:	e0bfff17 	ldw	r2,-4(fp)
    18ac:	18800715 	stw	r2,28(r3)

    pevent->OSEventTbl[OSTCBCur->OSTCBY] |= OSTCBCur->OSTCBBitX;    /* Put task in waiting list        */
    18b0:	d0a04217 	ldw	r2,-32504(gp)
    18b4:	10800d03 	ldbu	r2,52(r2)
    18b8:	11003fcc 	andi	r4,r2,255
    18bc:	d0a04217 	ldw	r2,-32504(gp)
    18c0:	10800d03 	ldbu	r2,52(r2)
    18c4:	10c03fcc 	andi	r3,r2,255
    18c8:	e0bfff17 	ldw	r2,-4(fp)
    18cc:	1885883a 	add	r2,r3,r2
    18d0:	10800204 	addi	r2,r2,8
    18d4:	10c000c3 	ldbu	r3,3(r2)
    18d8:	d0a04217 	ldw	r2,-32504(gp)
    18dc:	10800d43 	ldbu	r2,53(r2)
    18e0:	1884b03a 	or	r2,r3,r2
    18e4:	1007883a 	mov	r3,r2
    18e8:	e0bfff17 	ldw	r2,-4(fp)
    18ec:	2085883a 	add	r2,r4,r2
    18f0:	10800204 	addi	r2,r2,8
    18f4:	10c000c5 	stb	r3,3(r2)
    pevent->OSEventGrp                   |= OSTCBCur->OSTCBBitY;
    18f8:	e0bfff17 	ldw	r2,-4(fp)
    18fc:	10c00283 	ldbu	r3,10(r2)
    1900:	d0a04217 	ldw	r2,-32504(gp)
    1904:	10800d83 	ldbu	r2,54(r2)
    1908:	1884b03a 	or	r2,r3,r2
    190c:	1007883a 	mov	r3,r2
    1910:	e0bfff17 	ldw	r2,-4(fp)
    1914:	10c00285 	stb	r3,10(r2)

    y             =  OSTCBCur->OSTCBY;            /* Task no longer ready                              */
    1918:	d0a04217 	ldw	r2,-32504(gp)
    191c:	10800d03 	ldbu	r2,52(r2)
    1920:	e0bffe05 	stb	r2,-8(fp)
    OSRdyTbl[y]  &= ~OSTCBCur->OSTCBBitX;
    1924:	e13ffe03 	ldbu	r4,-8(fp)
    1928:	e0fffe03 	ldbu	r3,-8(fp)
    192c:	d0a03f44 	addi	r2,gp,-32515
    1930:	1885883a 	add	r2,r3,r2
    1934:	10800003 	ldbu	r2,0(r2)
    1938:	1007883a 	mov	r3,r2
    193c:	d0a04217 	ldw	r2,-32504(gp)
    1940:	10800d43 	ldbu	r2,53(r2)
    1944:	0084303a 	nor	r2,zero,r2
    1948:	1884703a 	and	r2,r3,r2
    194c:	1007883a 	mov	r3,r2
    1950:	d0a03f44 	addi	r2,gp,-32515
    1954:	2085883a 	add	r2,r4,r2
    1958:	10c00005 	stb	r3,0(r2)
    if (OSRdyTbl[y] == 0) {
    195c:	e0fffe03 	ldbu	r3,-8(fp)
    1960:	d0a03f44 	addi	r2,gp,-32515
    1964:	1885883a 	add	r2,r3,r2
    1968:	10800003 	ldbu	r2,0(r2)
    196c:	10803fcc 	andi	r2,r2,255
    1970:	1004c03a 	cmpne	r2,r2,zero
    1974:	1000071e 	bne	r2,zero,1994 <OS_EventTaskWait+0x100>
        OSRdyGrp &= ~OSTCBCur->OSTCBBitY;         /* Clear event grp bit if this was only task pending */
    1978:	d0a04217 	ldw	r2,-32504(gp)
    197c:	10800d83 	ldbu	r2,54(r2)
    1980:	0084303a 	nor	r2,zero,r2
    1984:	1007883a 	mov	r3,r2
    1988:	d0a03f03 	ldbu	r2,-32516(gp)
    198c:	1884703a 	and	r2,r3,r2
    1990:	d0a03f05 	stb	r2,-32516(gp)
    }
}
    1994:	e037883a 	mov	sp,fp
    1998:	df000017 	ldw	fp,0(sp)
    199c:	dec00104 	addi	sp,sp,4
    19a0:	f800283a 	ret

000019a4 <OS_EventTaskWaitMulti>:
* Note       : This function is INTERNAL to uC/OS-II and your application should not call it.
*********************************************************************************************************
*/
#if ((OS_EVENT_EN) && (OS_EVENT_MULTI_EN > 0))
void  OS_EventTaskWaitMulti (OS_EVENT **pevents_wait)
{
    19a4:	defffb04 	addi	sp,sp,-20
    19a8:	df000415 	stw	fp,16(sp)
    19ac:	df000404 	addi	fp,sp,16
    19b0:	e13fff15 	stw	r4,-4(fp)
    OS_EVENT **pevents;
    OS_EVENT  *pevent;
    INT8U      y;


    OSTCBCur->OSTCBEventPtr      = (OS_EVENT  *)0;
    19b4:	d0a04217 	ldw	r2,-32504(gp)
    19b8:	10000715 	stw	zero,28(r2)
    OSTCBCur->OSTCBEventMultiPtr = (OS_EVENT **)pevents_wait;       /* Store ptr to ECBs in TCB        */
    19bc:	d0e04217 	ldw	r3,-32504(gp)
    19c0:	e0bfff17 	ldw	r2,-4(fp)
    19c4:	18800815 	stw	r2,32(r3)

    pevents =  pevents_wait;
    19c8:	e0bfff17 	ldw	r2,-4(fp)
    19cc:	e0bffe15 	stw	r2,-8(fp)
    pevent  = *pevents;
    19d0:	e0bffe17 	ldw	r2,-8(fp)
    19d4:	10800017 	ldw	r2,0(r2)
    19d8:	e0bffd15 	stw	r2,-12(fp)
    while (pevent != (OS_EVENT *)0) {                               /* Put task in waiting lists       */
    19dc:	00002006 	br	1a60 <OS_EventTaskWaitMulti+0xbc>
        pevent->OSEventTbl[OSTCBCur->OSTCBY] |= OSTCBCur->OSTCBBitX;
    19e0:	d0a04217 	ldw	r2,-32504(gp)
    19e4:	10800d03 	ldbu	r2,52(r2)
    19e8:	11003fcc 	andi	r4,r2,255
    19ec:	d0a04217 	ldw	r2,-32504(gp)
    19f0:	10800d03 	ldbu	r2,52(r2)
    19f4:	10c03fcc 	andi	r3,r2,255
    19f8:	e0bffd17 	ldw	r2,-12(fp)
    19fc:	1885883a 	add	r2,r3,r2
    1a00:	10800204 	addi	r2,r2,8
    1a04:	10c000c3 	ldbu	r3,3(r2)
    1a08:	d0a04217 	ldw	r2,-32504(gp)
    1a0c:	10800d43 	ldbu	r2,53(r2)
    1a10:	1884b03a 	or	r2,r3,r2
    1a14:	1007883a 	mov	r3,r2
    1a18:	e0bffd17 	ldw	r2,-12(fp)
    1a1c:	2085883a 	add	r2,r4,r2
    1a20:	10800204 	addi	r2,r2,8
    1a24:	10c000c5 	stb	r3,3(r2)
        pevent->OSEventGrp                   |= OSTCBCur->OSTCBBitY;
    1a28:	e0bffd17 	ldw	r2,-12(fp)
    1a2c:	10c00283 	ldbu	r3,10(r2)
    1a30:	d0a04217 	ldw	r2,-32504(gp)
    1a34:	10800d83 	ldbu	r2,54(r2)
    1a38:	1884b03a 	or	r2,r3,r2
    1a3c:	1007883a 	mov	r3,r2
    1a40:	e0bffd17 	ldw	r2,-12(fp)
    1a44:	10c00285 	stb	r3,10(r2)
        pevents++;
    1a48:	e0bffe17 	ldw	r2,-8(fp)
    1a4c:	10800104 	addi	r2,r2,4
    1a50:	e0bffe15 	stw	r2,-8(fp)
        pevent = *pevents;
    1a54:	e0bffe17 	ldw	r2,-8(fp)
    1a58:	10800017 	ldw	r2,0(r2)
    1a5c:	e0bffd15 	stw	r2,-12(fp)
    OSTCBCur->OSTCBEventPtr      = (OS_EVENT  *)0;
    OSTCBCur->OSTCBEventMultiPtr = (OS_EVENT **)pevents_wait;       /* Store ptr to ECBs in TCB        */

    pevents =  pevents_wait;
    pevent  = *pevents;
    while (pevent != (OS_EVENT *)0) {                               /* Put task in waiting lists       */
    1a60:	e0bffd17 	ldw	r2,-12(fp)
    1a64:	1004c03a 	cmpne	r2,r2,zero
    1a68:	103fdd1e 	bne	r2,zero,19e0 <OS_EventTaskWaitMulti+0x3c>
        pevent->OSEventGrp                   |= OSTCBCur->OSTCBBitY;
        pevents++;
        pevent = *pevents;
    }

    y             =  OSTCBCur->OSTCBY;            /* Task no longer ready                              */
    1a6c:	d0a04217 	ldw	r2,-32504(gp)
    1a70:	10800d03 	ldbu	r2,52(r2)
    1a74:	e0bffc05 	stb	r2,-16(fp)
    OSRdyTbl[y]  &= ~OSTCBCur->OSTCBBitX;
    1a78:	e13ffc03 	ldbu	r4,-16(fp)
    1a7c:	e0fffc03 	ldbu	r3,-16(fp)
    1a80:	d0a03f44 	addi	r2,gp,-32515
    1a84:	1885883a 	add	r2,r3,r2
    1a88:	10800003 	ldbu	r2,0(r2)
    1a8c:	1007883a 	mov	r3,r2
    1a90:	d0a04217 	ldw	r2,-32504(gp)
    1a94:	10800d43 	ldbu	r2,53(r2)
    1a98:	0084303a 	nor	r2,zero,r2
    1a9c:	1884703a 	and	r2,r3,r2
    1aa0:	1007883a 	mov	r3,r2
    1aa4:	d0a03f44 	addi	r2,gp,-32515
    1aa8:	2085883a 	add	r2,r4,r2
    1aac:	10c00005 	stb	r3,0(r2)
    if (OSRdyTbl[y] == 0) {
    1ab0:	e0fffc03 	ldbu	r3,-16(fp)
    1ab4:	d0a03f44 	addi	r2,gp,-32515
    1ab8:	1885883a 	add	r2,r3,r2
    1abc:	10800003 	ldbu	r2,0(r2)
    1ac0:	10803fcc 	andi	r2,r2,255
    1ac4:	1004c03a 	cmpne	r2,r2,zero
    1ac8:	1000071e 	bne	r2,zero,1ae8 <OS_EventTaskWaitMulti+0x144>
        OSRdyGrp &= ~OSTCBCur->OSTCBBitY;         /* Clear event grp bit if this was only task pending */
    1acc:	d0a04217 	ldw	r2,-32504(gp)
    1ad0:	10800d83 	ldbu	r2,54(r2)
    1ad4:	0084303a 	nor	r2,zero,r2
    1ad8:	1007883a 	mov	r3,r2
    1adc:	d0a03f03 	ldbu	r2,-32516(gp)
    1ae0:	1884703a 	and	r2,r3,r2
    1ae4:	d0a03f05 	stb	r2,-32516(gp)
    }
}
    1ae8:	e037883a 	mov	sp,fp
    1aec:	df000017 	ldw	fp,0(sp)
    1af0:	dec00104 	addi	sp,sp,4
    1af4:	f800283a 	ret

00001af8 <OS_EventTaskRemove>:
*********************************************************************************************************
*/
#if (OS_EVENT_EN)
void  OS_EventTaskRemove (OS_TCB   *ptcb,
                          OS_EVENT *pevent)
{
    1af8:	defffc04 	addi	sp,sp,-16
    1afc:	df000315 	stw	fp,12(sp)
    1b00:	df000304 	addi	fp,sp,12
    1b04:	e13ffe15 	stw	r4,-8(fp)
    1b08:	e17fff15 	stw	r5,-4(fp)
    INT8U  y;


    y                       =  ptcb->OSTCBY;
    1b0c:	e0bffe17 	ldw	r2,-8(fp)
    1b10:	10800d03 	ldbu	r2,52(r2)
    1b14:	e0bffd05 	stb	r2,-12(fp)
    pevent->OSEventTbl[y]  &= ~ptcb->OSTCBBitX;         /* Remove task from wait list                  */
    1b18:	e13ffd03 	ldbu	r4,-12(fp)
    1b1c:	e0fffd03 	ldbu	r3,-12(fp)
    1b20:	e0bfff17 	ldw	r2,-4(fp)
    1b24:	1885883a 	add	r2,r3,r2
    1b28:	10800204 	addi	r2,r2,8
    1b2c:	108000c3 	ldbu	r2,3(r2)
    1b30:	1007883a 	mov	r3,r2
    1b34:	e0bffe17 	ldw	r2,-8(fp)
    1b38:	10800d43 	ldbu	r2,53(r2)
    1b3c:	0084303a 	nor	r2,zero,r2
    1b40:	1884703a 	and	r2,r3,r2
    1b44:	1007883a 	mov	r3,r2
    1b48:	e0bfff17 	ldw	r2,-4(fp)
    1b4c:	2085883a 	add	r2,r4,r2
    1b50:	10800204 	addi	r2,r2,8
    1b54:	10c000c5 	stb	r3,3(r2)
    if (pevent->OSEventTbl[y] == 0) {
    1b58:	e0fffd03 	ldbu	r3,-12(fp)
    1b5c:	e0bfff17 	ldw	r2,-4(fp)
    1b60:	1885883a 	add	r2,r3,r2
    1b64:	10800204 	addi	r2,r2,8
    1b68:	108000c3 	ldbu	r2,3(r2)
    1b6c:	10803fcc 	andi	r2,r2,255
    1b70:	1004c03a 	cmpne	r2,r2,zero
    1b74:	10000a1e 	bne	r2,zero,1ba0 <OS_EventTaskRemove+0xa8>
        pevent->OSEventGrp &= ~ptcb->OSTCBBitY;
    1b78:	e0bfff17 	ldw	r2,-4(fp)
    1b7c:	10800283 	ldbu	r2,10(r2)
    1b80:	1007883a 	mov	r3,r2
    1b84:	e0bffe17 	ldw	r2,-8(fp)
    1b88:	10800d83 	ldbu	r2,54(r2)
    1b8c:	0084303a 	nor	r2,zero,r2
    1b90:	1884703a 	and	r2,r3,r2
    1b94:	1007883a 	mov	r3,r2
    1b98:	e0bfff17 	ldw	r2,-4(fp)
    1b9c:	10c00285 	stb	r3,10(r2)
    }
}
    1ba0:	e037883a 	mov	sp,fp
    1ba4:	df000017 	ldw	fp,0(sp)
    1ba8:	dec00104 	addi	sp,sp,4
    1bac:	f800283a 	ret

00001bb0 <OS_EventTaskRemoveMulti>:
*********************************************************************************************************
*/
#if ((OS_EVENT_EN) && (OS_EVENT_MULTI_EN > 0))
void  OS_EventTaskRemoveMulti (OS_TCB    *ptcb,
                               OS_EVENT **pevents_multi)
{
    1bb0:	defffa04 	addi	sp,sp,-24
    1bb4:	df000515 	stw	fp,20(sp)
    1bb8:	df000504 	addi	fp,sp,20
    1bbc:	e13ffe15 	stw	r4,-8(fp)
    1bc0:	e17fff15 	stw	r5,-4(fp)
    INT16U     bity;
    INT16U     bitx;
#endif


    y       =  ptcb->OSTCBY;
    1bc4:	e0bffe17 	ldw	r2,-8(fp)
    1bc8:	10800d03 	ldbu	r2,52(r2)
    1bcc:	e0bffb85 	stb	r2,-18(fp)
    bity    =  ptcb->OSTCBBitY;
    1bd0:	e0bffe17 	ldw	r2,-8(fp)
    1bd4:	10800d83 	ldbu	r2,54(r2)
    1bd8:	e0bffb45 	stb	r2,-19(fp)
    bitx    =  ptcb->OSTCBBitX;
    1bdc:	e0bffe17 	ldw	r2,-8(fp)
    1be0:	10800d43 	ldbu	r2,53(r2)
    1be4:	e0bffb05 	stb	r2,-20(fp)
    pevents =  pevents_multi;
    1be8:	e0bfff17 	ldw	r2,-4(fp)
    1bec:	e0bffd15 	stw	r2,-12(fp)
    pevent  = *pevents;
    1bf0:	e0bffd17 	ldw	r2,-12(fp)
    1bf4:	10800017 	ldw	r2,0(r2)
    1bf8:	e0bffc15 	stw	r2,-16(fp)
    while (pevent != (OS_EVENT *)0) {                   /* Remove task from all events' wait lists     */
    1bfc:	00002606 	br	1c98 <OS_EventTaskRemoveMulti+0xe8>
        pevent->OSEventTbl[y]  &= ~bitx;
    1c00:	e13ffb83 	ldbu	r4,-18(fp)
    1c04:	e0fffb83 	ldbu	r3,-18(fp)
    1c08:	e0bffc17 	ldw	r2,-16(fp)
    1c0c:	1885883a 	add	r2,r3,r2
    1c10:	10800204 	addi	r2,r2,8
    1c14:	108000c3 	ldbu	r2,3(r2)
    1c18:	1007883a 	mov	r3,r2
    1c1c:	e0bffb03 	ldbu	r2,-20(fp)
    1c20:	0084303a 	nor	r2,zero,r2
    1c24:	1884703a 	and	r2,r3,r2
    1c28:	1007883a 	mov	r3,r2
    1c2c:	e0bffc17 	ldw	r2,-16(fp)
    1c30:	2085883a 	add	r2,r4,r2
    1c34:	10800204 	addi	r2,r2,8
    1c38:	10c000c5 	stb	r3,3(r2)
        if (pevent->OSEventTbl[y] == 0) {
    1c3c:	e0fffb83 	ldbu	r3,-18(fp)
    1c40:	e0bffc17 	ldw	r2,-16(fp)
    1c44:	1885883a 	add	r2,r3,r2
    1c48:	10800204 	addi	r2,r2,8
    1c4c:	108000c3 	ldbu	r2,3(r2)
    1c50:	10803fcc 	andi	r2,r2,255
    1c54:	1004c03a 	cmpne	r2,r2,zero
    1c58:	1000091e 	bne	r2,zero,1c80 <OS_EventTaskRemoveMulti+0xd0>
            pevent->OSEventGrp &= ~bity;
    1c5c:	e0bffc17 	ldw	r2,-16(fp)
    1c60:	10800283 	ldbu	r2,10(r2)
    1c64:	1007883a 	mov	r3,r2
    1c68:	e0bffb43 	ldbu	r2,-19(fp)
    1c6c:	0084303a 	nor	r2,zero,r2
    1c70:	1884703a 	and	r2,r3,r2
    1c74:	1007883a 	mov	r3,r2
    1c78:	e0bffc17 	ldw	r2,-16(fp)
    1c7c:	10c00285 	stb	r3,10(r2)
        }
        pevents++;
    1c80:	e0bffd17 	ldw	r2,-12(fp)
    1c84:	10800104 	addi	r2,r2,4
    1c88:	e0bffd15 	stw	r2,-12(fp)
        pevent = *pevents;
    1c8c:	e0bffd17 	ldw	r2,-12(fp)
    1c90:	10800017 	ldw	r2,0(r2)
    1c94:	e0bffc15 	stw	r2,-16(fp)
    y       =  ptcb->OSTCBY;
    bity    =  ptcb->OSTCBBitY;
    bitx    =  ptcb->OSTCBBitX;
    pevents =  pevents_multi;
    pevent  = *pevents;
    while (pevent != (OS_EVENT *)0) {                   /* Remove task from all events' wait lists     */
    1c98:	e0bffc17 	ldw	r2,-16(fp)
    1c9c:	1004c03a 	cmpne	r2,r2,zero
    1ca0:	103fd71e 	bne	r2,zero,1c00 <OS_EventTaskRemoveMulti+0x50>
            pevent->OSEventGrp &= ~bity;
        }
        pevents++;
        pevent = *pevents;
    }
}
    1ca4:	e037883a 	mov	sp,fp
    1ca8:	df000017 	ldw	fp,0(sp)
    1cac:	dec00104 	addi	sp,sp,4
    1cb0:	f800283a 	ret

00001cb4 <OS_EventWaitListInit>:
* Note       : This function is INTERNAL to uC/OS-II and your application should not call it.
*********************************************************************************************************
*/
#if (OS_EVENT_EN)
void  OS_EventWaitListInit (OS_EVENT *pevent)
{
    1cb4:	defffc04 	addi	sp,sp,-16
    1cb8:	df000315 	stw	fp,12(sp)
    1cbc:	df000304 	addi	fp,sp,12
    1cc0:	e13fff15 	stw	r4,-4(fp)
    INT16U *ptbl;
#endif
    INT8U   i;


    pevent->OSEventGrp = 0;                      /* No task waiting on event                           */
    1cc4:	e0bfff17 	ldw	r2,-4(fp)
    1cc8:	10000285 	stb	zero,10(r2)
    ptbl               = &pevent->OSEventTbl[0];
    1ccc:	e0bfff17 	ldw	r2,-4(fp)
    1cd0:	108002c4 	addi	r2,r2,11
    1cd4:	e0bffe15 	stw	r2,-8(fp)

    for (i = 0; i < OS_EVENT_TBL_SIZE; i++) {
    1cd8:	e03ffd05 	stb	zero,-12(fp)
    1cdc:	00000806 	br	1d00 <OS_EventWaitListInit+0x4c>
        *ptbl++ = 0;
    1ce0:	e0bffe17 	ldw	r2,-8(fp)
    1ce4:	10000005 	stb	zero,0(r2)
    1ce8:	e0bffe17 	ldw	r2,-8(fp)
    1cec:	10800044 	addi	r2,r2,1
    1cf0:	e0bffe15 	stw	r2,-8(fp)


    pevent->OSEventGrp = 0;                      /* No task waiting on event                           */
    ptbl               = &pevent->OSEventTbl[0];

    for (i = 0; i < OS_EVENT_TBL_SIZE; i++) {
    1cf4:	e0bffd03 	ldbu	r2,-12(fp)
    1cf8:	10800044 	addi	r2,r2,1
    1cfc:	e0bffd05 	stb	r2,-12(fp)
    1d00:	e0bffd03 	ldbu	r2,-12(fp)
    1d04:	108000f0 	cmpltui	r2,r2,3
    1d08:	103ff51e 	bne	r2,zero,1ce0 <OS_EventWaitListInit+0x2c>
        *ptbl++ = 0;
    }
}
    1d0c:	e037883a 	mov	sp,fp
    1d10:	df000017 	ldw	fp,0(sp)
    1d14:	dec00104 	addi	sp,sp,4
    1d18:	f800283a 	ret

00001d1c <OS_InitEventList>:
* Returns    : none
*********************************************************************************************************
*/

static  void  OS_InitEventList (void)
{
    1d1c:	defffb04 	addi	sp,sp,-20
    1d20:	dfc00415 	stw	ra,16(sp)
    1d24:	df000315 	stw	fp,12(sp)
    1d28:	df000304 	addi	fp,sp,12
    INT16U     i;
    OS_EVENT  *pevent1;
    OS_EVENT  *pevent2;


    OS_MemClr((INT8U *)&OSEventTbl[0], sizeof(OSEventTbl)); /* Clear the event table                   */
    1d2c:	010000b4 	movhi	r4,2
    1d30:	212b5b04 	addi	r4,r4,-21140
    1d34:	0142d004 	movi	r5,2880
    1d38:	00020800 	call	2080 <OS_MemClr>
    pevent1 = &OSEventTbl[0];
    1d3c:	008000b4 	movhi	r2,2
    1d40:	10ab5b04 	addi	r2,r2,-21140
    1d44:	e0bffe15 	stw	r2,-8(fp)
    pevent2 = &OSEventTbl[1];
    1d48:	008000b4 	movhi	r2,2
    1d4c:	10ab6704 	addi	r2,r2,-21092
    1d50:	e0bffd15 	stw	r2,-12(fp)
    for (i = 0; i < (OS_MAX_EVENTS - 1); i++) {             /* Init. list of free EVENT control blocks */
    1d54:	e03fff0d 	sth	zero,-4(fp)
    1d58:	00001306 	br	1da8 <OS_InitEventList+0x8c>
        pevent1->OSEventType    = OS_EVENT_TYPE_UNUSED;
    1d5c:	e0bffe17 	ldw	r2,-8(fp)
    1d60:	10000005 	stb	zero,0(r2)
        pevent1->OSEventPtr     = pevent2;
    1d64:	e0fffe17 	ldw	r3,-8(fp)
    1d68:	e0bffd17 	ldw	r2,-12(fp)
    1d6c:	18800115 	stw	r2,4(r3)
#if OS_EVENT_NAME_SIZE > 1
        pevent1->OSEventName[0] = '?';                      /* Unknown name                            */
    1d70:	e0fffe17 	ldw	r3,-8(fp)
    1d74:	00800fc4 	movi	r2,63
    1d78:	18800385 	stb	r2,14(r3)
        pevent1->OSEventName[1] = OS_ASCII_NUL;
    1d7c:	e0bffe17 	ldw	r2,-8(fp)
    1d80:	100003c5 	stb	zero,15(r2)
#endif
        pevent1++;
    1d84:	e0bffe17 	ldw	r2,-8(fp)
    1d88:	10800c04 	addi	r2,r2,48
    1d8c:	e0bffe15 	stw	r2,-8(fp)
        pevent2++;
    1d90:	e0bffd17 	ldw	r2,-12(fp)
    1d94:	10800c04 	addi	r2,r2,48
    1d98:	e0bffd15 	stw	r2,-12(fp)


    OS_MemClr((INT8U *)&OSEventTbl[0], sizeof(OSEventTbl)); /* Clear the event table                   */
    pevent1 = &OSEventTbl[0];
    pevent2 = &OSEventTbl[1];
    for (i = 0; i < (OS_MAX_EVENTS - 1); i++) {             /* Init. list of free EVENT control blocks */
    1d9c:	e0bfff0b 	ldhu	r2,-4(fp)
    1da0:	10800044 	addi	r2,r2,1
    1da4:	e0bfff0d 	sth	r2,-4(fp)
    1da8:	e0bfff0b 	ldhu	r2,-4(fp)
    1dac:	10800ef0 	cmpltui	r2,r2,59
    1db0:	103fea1e 	bne	r2,zero,1d5c <OS_InitEventList+0x40>
        pevent1->OSEventName[1] = OS_ASCII_NUL;
#endif
        pevent1++;
        pevent2++;
    }
    pevent1->OSEventType            = OS_EVENT_TYPE_UNUSED;
    1db4:	e0bffe17 	ldw	r2,-8(fp)
    1db8:	10000005 	stb	zero,0(r2)
    pevent1->OSEventPtr             = (OS_EVENT *)0;
    1dbc:	e0bffe17 	ldw	r2,-8(fp)
    1dc0:	10000115 	stw	zero,4(r2)
#if OS_EVENT_NAME_SIZE > 1
    pevent1->OSEventName[0]         = '?';
    1dc4:	e0fffe17 	ldw	r3,-8(fp)
    1dc8:	00800fc4 	movi	r2,63
    1dcc:	18800385 	stb	r2,14(r3)
    pevent1->OSEventName[1]         = OS_ASCII_NUL;
    1dd0:	e0bffe17 	ldw	r2,-8(fp)
    1dd4:	100003c5 	stb	zero,15(r2)
#endif
    OSEventFreeList                 = &OSEventTbl[0];
    1dd8:	008000b4 	movhi	r2,2
    1ddc:	10ab5b04 	addi	r2,r2,-21140
    1de0:	d0a04015 	stw	r2,-32512(gp)
    OSEventFreeList->OSEventName[0] = '?';                  /* Unknown name                            */
    OSEventFreeList->OSEventName[1] = OS_ASCII_NUL;
#endif
#endif
#endif
}
    1de4:	e037883a 	mov	sp,fp
    1de8:	dfc00117 	ldw	ra,4(sp)
    1dec:	df000017 	ldw	fp,0(sp)
    1df0:	dec00204 	addi	sp,sp,8
    1df4:	f800283a 	ret

00001df8 <OS_InitMisc>:
* Returns    : none
*********************************************************************************************************
*/

static  void  OS_InitMisc (void)
{
    1df8:	deffff04 	addi	sp,sp,-4
    1dfc:	df000015 	stw	fp,0(sp)
    1e00:	d839883a 	mov	fp,sp
#if OS_TIME_GET_SET_EN > 0
    OSTime        = 0L;                                    /* Clear the 32-bit system clock            */
    1e04:	d0204315 	stw	zero,-32500(gp)
#endif

    OSIntNesting  = 0;                                     /* Clear the interrupt nesting counter      */
    1e08:	d0204105 	stb	zero,-32508(gp)
    OSLockNesting = 0;                                     /* Clear the scheduling lock counter        */
    1e0c:	d0203305 	stb	zero,-32564(gp)

    OSTaskCtr     = 0;                                     /* Clear the number of tasks                */
    1e10:	d0203b45 	stb	zero,-32531(gp)

    OSRunning     = OS_FALSE;                              /* Indicate that multitasking not started   */
    1e14:	d0203345 	stb	zero,-32563(gp)

    OSCtxSwCtr    = 0;                                     /* Clear the context switch counter         */
    1e18:	d0203815 	stw	zero,-32544(gp)
    OSIdleCtr     = 0L;                                    /* Clear the 32-bit idle counter            */
    1e1c:	d0203415 	stw	zero,-32560(gp)

#if OS_TASK_STAT_EN > 0
    OSIdleCtrRun  = 0L;
    1e20:	d0204615 	stw	zero,-32488(gp)
    OSIdleCtrMax  = 0L;
    1e24:	d0203915 	stw	zero,-32540(gp)
    OSStatRdy     = OS_FALSE;                              /* Statistic task is not ready              */
    1e28:	d0204505 	stb	zero,-32492(gp)
#endif
}
    1e2c:	e037883a 	mov	sp,fp
    1e30:	df000017 	ldw	fp,0(sp)
    1e34:	dec00104 	addi	sp,sp,4
    1e38:	f800283a 	ret

00001e3c <OS_InitRdyList>:
* Returns    : none
*********************************************************************************************************
*/

static  void  OS_InitRdyList (void)
{
    1e3c:	defffd04 	addi	sp,sp,-12
    1e40:	df000215 	stw	fp,8(sp)
    1e44:	df000204 	addi	fp,sp,8
#else
    INT16U  *prdytbl;
#endif


    OSRdyGrp      = 0;                                     /* Clear the ready list                     */
    1e48:	d0203f05 	stb	zero,-32516(gp)
    prdytbl       = &OSRdyTbl[0];
    1e4c:	d0a03f44 	addi	r2,gp,-32515
    1e50:	e0bffe15 	stw	r2,-8(fp)
    for (i = 0; i < OS_RDY_TBL_SIZE; i++) {
    1e54:	e03fff05 	stb	zero,-4(fp)
    1e58:	00000806 	br	1e7c <OS_InitRdyList+0x40>
        *prdytbl++ = 0;
    1e5c:	e0bffe17 	ldw	r2,-8(fp)
    1e60:	10000005 	stb	zero,0(r2)
    1e64:	e0bffe17 	ldw	r2,-8(fp)
    1e68:	10800044 	addi	r2,r2,1
    1e6c:	e0bffe15 	stw	r2,-8(fp)
#endif


    OSRdyGrp      = 0;                                     /* Clear the ready list                     */
    prdytbl       = &OSRdyTbl[0];
    for (i = 0; i < OS_RDY_TBL_SIZE; i++) {
    1e70:	e0bfff03 	ldbu	r2,-4(fp)
    1e74:	10800044 	addi	r2,r2,1
    1e78:	e0bfff05 	stb	r2,-4(fp)
    1e7c:	e0bfff03 	ldbu	r2,-4(fp)
    1e80:	108000f0 	cmpltui	r2,r2,3
    1e84:	103ff51e 	bne	r2,zero,1e5c <OS_InitRdyList+0x20>
        *prdytbl++ = 0;
    }

    OSPrioCur     = 0;
    1e88:	d0203545 	stb	zero,-32555(gp)
    OSPrioHighRdy = 0;
    1e8c:	d0203505 	stb	zero,-32556(gp)

    OSTCBHighRdy  = (OS_TCB *)0;
    1e90:	d0203d15 	stw	zero,-32524(gp)
    OSTCBCur      = (OS_TCB *)0;
    1e94:	d0204215 	stw	zero,-32504(gp)
}
    1e98:	e037883a 	mov	sp,fp
    1e9c:	df000017 	ldw	fp,0(sp)
    1ea0:	dec00104 	addi	sp,sp,4
    1ea4:	f800283a 	ret

00001ea8 <OS_InitTaskIdle>:
* Returns    : none
*********************************************************************************************************
*/

static  void  OS_InitTaskIdle (void)
{
    1ea8:	defff804 	addi	sp,sp,-32
    1eac:	dfc00715 	stw	ra,28(sp)
    1eb0:	df000615 	stw	fp,24(sp)
    1eb4:	df000604 	addi	fp,sp,24
#endif


#if OS_TASK_CREATE_EXT_EN > 0
    #if OS_STK_GROWTH == 1
    (void)OSTaskCreateExt(OS_TaskIdle,
    1eb8:	018000b4 	movhi	r6,2
    1ebc:	31ab5a04 	addi	r6,r6,-21144
    1ec0:	00bfffd4 	movui	r2,65535
    1ec4:	d8800015 	stw	r2,0(sp)
    1ec8:	008000b4 	movhi	r2,2
    1ecc:	10a95b04 	addi	r2,r2,-23188
    1ed0:	d8800115 	stw	r2,4(sp)
    1ed4:	00808004 	movi	r2,512
    1ed8:	d8800215 	stw	r2,8(sp)
    1edc:	d8000315 	stw	zero,12(sp)
    1ee0:	008000c4 	movi	r2,3
    1ee4:	d8800415 	stw	r2,16(sp)
    1ee8:	01000034 	movhi	r4,0
    1eec:	2108d704 	addi	r4,r4,9052
    1ef0:	000b883a 	mov	r5,zero
    1ef4:	01c00504 	movi	r7,20
    1ef8:	00071400 	call	7140 <OSTaskCreateExt>
                       OS_TASK_IDLE_PRIO);
    #endif
#endif

#if OS_TASK_NAME_SIZE > 14
    OSTaskNameSet(OS_TASK_IDLE_PRIO, (INT8U *)"uC/OS-II Idle", &err);
    1efc:	01400074 	movhi	r5,1
    1f00:	297b7a04 	addi	r5,r5,-4632
    1f04:	01000504 	movi	r4,20
    1f08:	e1bfff04 	addi	r6,fp,-4
    1f0c:	0007a740 	call	7a74 <OSTaskNameSet>
#else
#if OS_TASK_NAME_SIZE > 7
    OSTaskNameSet(OS_TASK_IDLE_PRIO, (INT8U *)"OS-Idle", &err);
#endif
#endif
}
    1f10:	e037883a 	mov	sp,fp
    1f14:	dfc00117 	ldw	ra,4(sp)
    1f18:	df000017 	ldw	fp,0(sp)
    1f1c:	dec00204 	addi	sp,sp,8
    1f20:	f800283a 	ret

00001f24 <OS_InitTaskStat>:
*********************************************************************************************************
*/

#if OS_TASK_STAT_EN > 0
static  void  OS_InitTaskStat (void)
{
    1f24:	defff804 	addi	sp,sp,-32
    1f28:	dfc00715 	stw	ra,28(sp)
    1f2c:	df000615 	stw	fp,24(sp)
    1f30:	df000604 	addi	fp,sp,24
#endif


#if OS_TASK_CREATE_EXT_EN > 0
    #if OS_STK_GROWTH == 1
    (void)OSTaskCreateExt(OS_TaskStat,
    1f34:	018000b4 	movhi	r6,2
    1f38:	31a8e204 	addi	r6,r6,-23672
    1f3c:	00bfff94 	movui	r2,65534
    1f40:	d8800015 	stw	r2,0(sp)
    1f44:	008000b4 	movhi	r2,2
    1f48:	10a6e304 	addi	r2,r2,-25716
    1f4c:	d8800115 	stw	r2,4(sp)
    1f50:	00808004 	movi	r2,512
    1f54:	d8800215 	stw	r2,8(sp)
    1f58:	d8000315 	stw	zero,12(sp)
    1f5c:	008000c4 	movi	r2,3
    1f60:	d8800415 	stw	r2,16(sp)
    1f64:	01000034 	movhi	r4,0
    1f68:	2108ee04 	addi	r4,r4,9144
    1f6c:	000b883a 	mov	r5,zero
    1f70:	01c004c4 	movi	r7,19
    1f74:	00071400 	call	7140 <OSTaskCreateExt>
                       OS_TASK_STAT_PRIO);                             /* One higher than the idle task  */
    #endif
#endif

#if OS_TASK_NAME_SIZE > 14
    OSTaskNameSet(OS_TASK_STAT_PRIO, (INT8U *)"uC/OS-II Stat", &err);
    1f78:	01400074 	movhi	r5,1
    1f7c:	297b7e04 	addi	r5,r5,-4616
    1f80:	010004c4 	movi	r4,19
    1f84:	e1bfff04 	addi	r6,fp,-4
    1f88:	0007a740 	call	7a74 <OSTaskNameSet>
#else
#if OS_TASK_NAME_SIZE > 7
    OSTaskNameSet(OS_TASK_STAT_PRIO, (INT8U *)"OS-Stat", &err);
#endif
#endif
}
    1f8c:	e037883a 	mov	sp,fp
    1f90:	dfc00117 	ldw	ra,4(sp)
    1f94:	df000017 	ldw	fp,0(sp)
    1f98:	dec00204 	addi	sp,sp,8
    1f9c:	f800283a 	ret

00001fa0 <OS_InitTCBList>:
* Returns    : none
*********************************************************************************************************
*/

static  void  OS_InitTCBList (void)
{
    1fa0:	defffb04 	addi	sp,sp,-20
    1fa4:	dfc00415 	stw	ra,16(sp)
    1fa8:	df000315 	stw	fp,12(sp)
    1fac:	df000304 	addi	fp,sp,12
    INT8U    i;
    OS_TCB  *ptcb1;
    OS_TCB  *ptcb2;


    OS_MemClr((INT8U *)&OSTCBTbl[0],     sizeof(OSTCBTbl));      /* Clear all the TCBs                 */
    1fb0:	010000b4 	movhi	r4,2
    1fb4:	212e2b04 	addi	r4,r4,-18260
    1fb8:	01414404 	movi	r5,1296
    1fbc:	00020800 	call	2080 <OS_MemClr>
    OS_MemClr((INT8U *)&OSTCBPrioTbl[0], sizeof(OSTCBPrioTbl));  /* Clear the priority table           */
    1fc0:	010000b4 	movhi	r4,2
    1fc4:	212f6f04 	addi	r4,r4,-16964
    1fc8:	01401504 	movi	r5,84
    1fcc:	00020800 	call	2080 <OS_MemClr>
    ptcb1 = &OSTCBTbl[0];
    1fd0:	008000b4 	movhi	r2,2
    1fd4:	10ae2b04 	addi	r2,r2,-18260
    1fd8:	e0bffe15 	stw	r2,-8(fp)
    ptcb2 = &OSTCBTbl[1];
    1fdc:	008000b4 	movhi	r2,2
    1fe0:	10ae4604 	addi	r2,r2,-18152
    1fe4:	e0bffd15 	stw	r2,-12(fp)
    for (i = 0; i < (OS_MAX_TASKS + OS_N_SYS_TASKS - 1); i++) {  /* Init. list of free TCBs            */
    1fe8:	e03fff05 	stb	zero,-4(fp)
    1fec:	00001106 	br	2034 <OS_InitTCBList+0x94>
        ptcb1->OSTCBNext = ptcb2;
    1ff0:	e0fffe17 	ldw	r3,-8(fp)
    1ff4:	e0bffd17 	ldw	r2,-12(fp)
    1ff8:	18800515 	stw	r2,20(r3)
#if OS_TASK_NAME_SIZE > 1
        ptcb1->OSTCBTaskName[0] = '?';                           /* Unknown name                       */
    1ffc:	e0fffe17 	ldw	r3,-8(fp)
    2000:	00800fc4 	movi	r2,63
    2004:	18801305 	stb	r2,76(r3)
        ptcb1->OSTCBTaskName[1] = OS_ASCII_NUL;
    2008:	e0bffe17 	ldw	r2,-8(fp)
    200c:	10001345 	stb	zero,77(r2)
#endif
        ptcb1++;
    2010:	e0bffe17 	ldw	r2,-8(fp)
    2014:	10801b04 	addi	r2,r2,108
    2018:	e0bffe15 	stw	r2,-8(fp)
        ptcb2++;
    201c:	e0bffd17 	ldw	r2,-12(fp)
    2020:	10801b04 	addi	r2,r2,108
    2024:	e0bffd15 	stw	r2,-12(fp)

    OS_MemClr((INT8U *)&OSTCBTbl[0],     sizeof(OSTCBTbl));      /* Clear all the TCBs                 */
    OS_MemClr((INT8U *)&OSTCBPrioTbl[0], sizeof(OSTCBPrioTbl));  /* Clear the priority table           */
    ptcb1 = &OSTCBTbl[0];
    ptcb2 = &OSTCBTbl[1];
    for (i = 0; i < (OS_MAX_TASKS + OS_N_SYS_TASKS - 1); i++) {  /* Init. list of free TCBs            */
    2028:	e0bfff03 	ldbu	r2,-4(fp)
    202c:	10800044 	addi	r2,r2,1
    2030:	e0bfff05 	stb	r2,-4(fp)
    2034:	e0bfff03 	ldbu	r2,-4(fp)
    2038:	108002f0 	cmpltui	r2,r2,11
    203c:	103fec1e 	bne	r2,zero,1ff0 <OS_InitTCBList+0x50>
        ptcb1->OSTCBTaskName[1] = OS_ASCII_NUL;
#endif
        ptcb1++;
        ptcb2++;
    }
    ptcb1->OSTCBNext = (OS_TCB *)0;                              /* Last OS_TCB                        */
    2040:	e0bffe17 	ldw	r2,-8(fp)
    2044:	10000515 	stw	zero,20(r2)
#if OS_TASK_NAME_SIZE > 1
    ptcb1->OSTCBTaskName[0] = '?';                               /* Unknown name                       */
    2048:	e0fffe17 	ldw	r3,-8(fp)
    204c:	00800fc4 	movi	r2,63
    2050:	18801305 	stb	r2,76(r3)
    ptcb1->OSTCBTaskName[1] = OS_ASCII_NUL;
    2054:	e0bffe17 	ldw	r2,-8(fp)
    2058:	10001345 	stb	zero,77(r2)
#endif
    OSTCBList               = (OS_TCB *)0;                       /* TCB lists initializations          */
    205c:	d0203615 	stw	zero,-32552(gp)
    OSTCBFreeList           = &OSTCBTbl[0];
    2060:	008000b4 	movhi	r2,2
    2064:	10ae2b04 	addi	r2,r2,-18260
    2068:	d0a03a15 	stw	r2,-32536(gp)
}
    206c:	e037883a 	mov	sp,fp
    2070:	dfc00117 	ldw	ra,4(sp)
    2074:	df000017 	ldw	fp,0(sp)
    2078:	dec00204 	addi	sp,sp,8
    207c:	f800283a 	ret

00002080 <OS_MemClr>:
*                 of the alignment of the destination.
*********************************************************************************************************
*/

void  OS_MemClr (INT8U *pdest, INT16U size)
{
    2080:	defffd04 	addi	sp,sp,-12
    2084:	df000215 	stw	fp,8(sp)
    2088:	df000204 	addi	fp,sp,8
    208c:	e13ffe15 	stw	r4,-8(fp)
    2090:	e17fff0d 	sth	r5,-4(fp)
    while (size > 0) {
    2094:	00000806 	br	20b8 <OS_MemClr+0x38>
        *pdest++ = (INT8U)0;
    2098:	e0bffe17 	ldw	r2,-8(fp)
    209c:	10000005 	stb	zero,0(r2)
    20a0:	e0bffe17 	ldw	r2,-8(fp)
    20a4:	10800044 	addi	r2,r2,1
    20a8:	e0bffe15 	stw	r2,-8(fp)
        size--;
    20ac:	e0bfff0b 	ldhu	r2,-4(fp)
    20b0:	10bfffc4 	addi	r2,r2,-1
    20b4:	e0bfff0d 	sth	r2,-4(fp)
*********************************************************************************************************
*/

void  OS_MemClr (INT8U *pdest, INT16U size)
{
    while (size > 0) {
    20b8:	e0bfff0b 	ldhu	r2,-4(fp)
    20bc:	1004c03a 	cmpne	r2,r2,zero
    20c0:	103ff51e 	bne	r2,zero,2098 <OS_MemClr+0x18>
        *pdest++ = (INT8U)0;
        size--;
    }
}
    20c4:	e037883a 	mov	sp,fp
    20c8:	df000017 	ldw	fp,0(sp)
    20cc:	dec00104 	addi	sp,sp,4
    20d0:	f800283a 	ret

000020d4 <OS_MemCopy>:
*                 of the alignment of the source and destination.
*********************************************************************************************************
*/

void  OS_MemCopy (INT8U *pdest, INT8U *psrc, INT16U size)
{
    20d4:	defffc04 	addi	sp,sp,-16
    20d8:	df000315 	stw	fp,12(sp)
    20dc:	df000304 	addi	fp,sp,12
    20e0:	e13ffd15 	stw	r4,-12(fp)
    20e4:	e17ffe15 	stw	r5,-8(fp)
    20e8:	e1bfff0d 	sth	r6,-4(fp)
    while (size > 0) {
    20ec:	00000d06 	br	2124 <OS_MemCopy+0x50>
        *pdest++ = *psrc++;
    20f0:	e0bffe17 	ldw	r2,-8(fp)
    20f4:	10c00003 	ldbu	r3,0(r2)
    20f8:	e0bffd17 	ldw	r2,-12(fp)
    20fc:	10c00005 	stb	r3,0(r2)
    2100:	e0bffd17 	ldw	r2,-12(fp)
    2104:	10800044 	addi	r2,r2,1
    2108:	e0bffd15 	stw	r2,-12(fp)
    210c:	e0bffe17 	ldw	r2,-8(fp)
    2110:	10800044 	addi	r2,r2,1
    2114:	e0bffe15 	stw	r2,-8(fp)
        size--;
    2118:	e0bfff0b 	ldhu	r2,-4(fp)
    211c:	10bfffc4 	addi	r2,r2,-1
    2120:	e0bfff0d 	sth	r2,-4(fp)
*********************************************************************************************************
*/

void  OS_MemCopy (INT8U *pdest, INT8U *psrc, INT16U size)
{
    while (size > 0) {
    2124:	e0bfff0b 	ldhu	r2,-4(fp)
    2128:	1004c03a 	cmpne	r2,r2,zero
    212c:	103ff01e 	bne	r2,zero,20f0 <OS_MemCopy+0x1c>
        *pdest++ = *psrc++;
        size--;
    }
}
    2130:	e037883a 	mov	sp,fp
    2134:	df000017 	ldw	fp,0(sp)
    2138:	dec00104 	addi	sp,sp,4
    213c:	f800283a 	ret

00002140 <OS_Sched>:
*              2) Rescheduling is prevented when the scheduler is locked (see OS_SchedLock())
*********************************************************************************************************
*/

void  OS_Sched (void)
{
    2140:	defffb04 	addi	sp,sp,-20
    2144:	dfc00415 	stw	ra,16(sp)
    2148:	df000315 	stw	fp,12(sp)
    214c:	df000304 	addi	fp,sp,12
#if OS_CRITICAL_METHOD == 3                            /* Allocate storage for CPU status register     */
    OS_CPU_SR  cpu_sr = 0;
    2150:	e03fff15 	stw	zero,-4(fp)
static ALT_INLINE alt_irq_context ALT_ALWAYS_INLINE 
       alt_irq_disable_all (void)
{
  alt_irq_context context;

  NIOS2_READ_STATUS (context);
    2154:	0005303a 	rdctl	r2,status
    2158:	e0bffe15 	stw	r2,-8(fp)

  NIOS2_WRITE_STATUS (context & ~NIOS2_STATUS_PIE_MSK);
    215c:	e0fffe17 	ldw	r3,-8(fp)
    2160:	00bfff84 	movi	r2,-2
    2164:	1884703a 	and	r2,r3,r2
    2168:	1001703a 	wrctl	status,r2
  
  return context;
    216c:	e0bffe17 	ldw	r2,-8(fp)
#endif



    OS_ENTER_CRITICAL();
    2170:	e0bfff15 	stw	r2,-4(fp)
    if (OSIntNesting == 0) {                           /* Schedule only if all ISRs done and ...       */
    2174:	d0a04103 	ldbu	r2,-32508(gp)
    2178:	10803fcc 	andi	r2,r2,255
    217c:	1004c03a 	cmpne	r2,r2,zero
    2180:	10001b1e 	bne	r2,zero,21f0 <OS_Sched+0xb0>
        if (OSLockNesting == 0) {                      /* ... scheduler is not locked                  */
    2184:	d0a03303 	ldbu	r2,-32564(gp)
    2188:	10803fcc 	andi	r2,r2,255
    218c:	1004c03a 	cmpne	r2,r2,zero
    2190:	1000171e 	bne	r2,zero,21f0 <OS_Sched+0xb0>
            OS_SchedNew();
    2194:	00022140 	call	2214 <OS_SchedNew>
            if (OSPrioHighRdy != OSPrioCur) {          /* No Ctx Sw if current task is highest rdy     */
    2198:	d0a03503 	ldbu	r2,-32556(gp)
    219c:	d0e03543 	ldbu	r3,-32555(gp)
    21a0:	11003fcc 	andi	r4,r2,255
    21a4:	18803fcc 	andi	r2,r3,255
    21a8:	20801126 	beq	r4,r2,21f0 <OS_Sched+0xb0>
                OSTCBHighRdy = OSTCBPrioTbl[OSPrioHighRdy];
    21ac:	d0a03503 	ldbu	r2,-32556(gp)
    21b0:	10803fcc 	andi	r2,r2,255
    21b4:	00c000b4 	movhi	r3,2
    21b8:	18ef6f04 	addi	r3,r3,-16964
    21bc:	1085883a 	add	r2,r2,r2
    21c0:	1085883a 	add	r2,r2,r2
    21c4:	10c5883a 	add	r2,r2,r3
    21c8:	10800017 	ldw	r2,0(r2)
    21cc:	d0a03d15 	stw	r2,-32524(gp)
#if OS_TASK_PROFILE_EN > 0
                OSTCBHighRdy->OSTCBCtxSwCtr++;         /* Inc. # of context switches to this task      */
    21d0:	d0e03d17 	ldw	r3,-32524(gp)
    21d4:	18800e17 	ldw	r2,56(r3)
    21d8:	10800044 	addi	r2,r2,1
    21dc:	18800e15 	stw	r2,56(r3)
#endif
                OSCtxSwCtr++;                          /* Increment context switch counter             */
    21e0:	d0a03817 	ldw	r2,-32544(gp)
    21e4:	10800044 	addi	r2,r2,1
    21e8:	d0a03815 	stw	r2,-32544(gp)
                OS_TASK_SW();                          /* Perform a context switch                     */
    21ec:	000c6440 	call	c644 <OSCtxSw>
    21f0:	e0bfff17 	ldw	r2,-4(fp)
    21f4:	e0bffd15 	stw	r2,-12(fp)
  status &= ~NIOS2_STATUS_PIE_MSK;
  status |= (context & NIOS2_STATUS_PIE_MSK);
  
  NIOS2_WRITE_STATUS (status);
#else
  NIOS2_WRITE_STATUS (context);
    21f8:	e0bffd17 	ldw	r2,-12(fp)
    21fc:	1001703a 	wrctl	status,r2
            }
        }
    }
    OS_EXIT_CRITICAL();
}
    2200:	e037883a 	mov	sp,fp
    2204:	dfc00117 	ldw	ra,4(sp)
    2208:	df000017 	ldw	fp,0(sp)
    220c:	dec00204 	addi	sp,sp,8
    2210:	f800283a 	ret

00002214 <OS_SchedNew>:
*              2) Interrupts are assumed to be disabled when this function is called.
*********************************************************************************************************
*/

static  void  OS_SchedNew (void)
{
    2214:	defffe04 	addi	sp,sp,-8
    2218:	df000115 	stw	fp,4(sp)
    221c:	df000104 	addi	fp,sp,4
#if OS_LOWEST_PRIO <= 63                         /* See if we support up to 64 tasks                   */
    INT8U   y;


    y             = OSUnMapTbl[OSRdyGrp];
    2220:	d0a03f03 	ldbu	r2,-32516(gp)
    2224:	10c03fcc 	andi	r3,r2,255
    2228:	00800074 	movhi	r2,1
    222c:	10bb3a04 	addi	r2,r2,-4888
    2230:	10c5883a 	add	r2,r2,r3
    2234:	10800003 	ldbu	r2,0(r2)
    2238:	e0bfff05 	stb	r2,-4(fp)
    OSPrioHighRdy = (INT8U)((y << 3) + OSUnMapTbl[OSRdyTbl[y]]);
    223c:	e0bfff03 	ldbu	r2,-4(fp)
    2240:	100490fa 	slli	r2,r2,3
    2244:	1009883a 	mov	r4,r2
    2248:	e0ffff03 	ldbu	r3,-4(fp)
    224c:	d0a03f44 	addi	r2,gp,-32515
    2250:	1885883a 	add	r2,r3,r2
    2254:	10800003 	ldbu	r2,0(r2)
    2258:	10c03fcc 	andi	r3,r2,255
    225c:	00800074 	movhi	r2,1
    2260:	10bb3a04 	addi	r2,r2,-4888
    2264:	10c5883a 	add	r2,r2,r3
    2268:	10800003 	ldbu	r2,0(r2)
    226c:	2085883a 	add	r2,r4,r2
    2270:	d0a03505 	stb	r2,-32556(gp)
        OSPrioHighRdy = (INT8U)((y << 4) + OSUnMapTbl[(*ptbl & 0xFF)]);
    } else {
        OSPrioHighRdy = (INT8U)((y << 4) + OSUnMapTbl[(*ptbl >> 8) & 0xFF] + 8);
    }
#endif
}
    2274:	e037883a 	mov	sp,fp
    2278:	df000017 	ldw	fp,0(sp)
    227c:	dec00104 	addi	sp,sp,4
    2280:	f800283a 	ret

00002284 <OS_StrCopy>:
*********************************************************************************************************
*/

#if (OS_EVENT_NAME_SIZE > 1) || (OS_FLAG_NAME_SIZE > 1) || (OS_MEM_NAME_SIZE > 1) || (OS_TASK_NAME_SIZE > 1) || (OS_TMR_CFG_NAME_SIZE > 1)
INT8U  OS_StrCopy (INT8U *pdest, INT8U *psrc)
{
    2284:	defffc04 	addi	sp,sp,-16
    2288:	df000315 	stw	fp,12(sp)
    228c:	df000304 	addi	fp,sp,12
    2290:	e13ffe15 	stw	r4,-8(fp)
    2294:	e17fff15 	stw	r5,-4(fp)
    INT8U  len;


    len = 0;
    2298:	e03ffd05 	stb	zero,-12(fp)
    while (*psrc != OS_ASCII_NUL) {
    229c:	00000d06 	br	22d4 <OS_StrCopy+0x50>
        *pdest++ = *psrc++;
    22a0:	e0bfff17 	ldw	r2,-4(fp)
    22a4:	10c00003 	ldbu	r3,0(r2)
    22a8:	e0bffe17 	ldw	r2,-8(fp)
    22ac:	10c00005 	stb	r3,0(r2)
    22b0:	e0bffe17 	ldw	r2,-8(fp)
    22b4:	10800044 	addi	r2,r2,1
    22b8:	e0bffe15 	stw	r2,-8(fp)
    22bc:	e0bfff17 	ldw	r2,-4(fp)
    22c0:	10800044 	addi	r2,r2,1
    22c4:	e0bfff15 	stw	r2,-4(fp)
        len++;
    22c8:	e0bffd03 	ldbu	r2,-12(fp)
    22cc:	10800044 	addi	r2,r2,1
    22d0:	e0bffd05 	stb	r2,-12(fp)
{
    INT8U  len;


    len = 0;
    while (*psrc != OS_ASCII_NUL) {
    22d4:	e0bfff17 	ldw	r2,-4(fp)
    22d8:	10800003 	ldbu	r2,0(r2)
    22dc:	10803fcc 	andi	r2,r2,255
    22e0:	1004c03a 	cmpne	r2,r2,zero
    22e4:	103fee1e 	bne	r2,zero,22a0 <OS_StrCopy+0x1c>
        *pdest++ = *psrc++;
        len++;
    }
    *pdest = OS_ASCII_NUL;
    22e8:	e0bffe17 	ldw	r2,-8(fp)
    22ec:	10000005 	stb	zero,0(r2)
    return (len);
    22f0:	e0bffd03 	ldbu	r2,-12(fp)
}
    22f4:	e037883a 	mov	sp,fp
    22f8:	df000017 	ldw	fp,0(sp)
    22fc:	dec00104 	addi	sp,sp,4
    2300:	f800283a 	ret

00002304 <OS_StrLen>:
*********************************************************************************************************
*/

#if (OS_EVENT_NAME_SIZE > 1) || (OS_FLAG_NAME_SIZE > 1) || (OS_MEM_NAME_SIZE > 1) || (OS_TASK_NAME_SIZE > 1) || (OS_TMR_CFG_NAME_SIZE > 1)
INT8U  OS_StrLen (INT8U *psrc)
{
    2304:	defffd04 	addi	sp,sp,-12
    2308:	df000215 	stw	fp,8(sp)
    230c:	df000204 	addi	fp,sp,8
    2310:	e13fff15 	stw	r4,-4(fp)
    INT8U  len;


    len = 0;
    2314:	e03ffe05 	stb	zero,-8(fp)
    while (*psrc != OS_ASCII_NUL) {
    2318:	00000606 	br	2334 <OS_StrLen+0x30>
        psrc++;
    231c:	e0bfff17 	ldw	r2,-4(fp)
    2320:	10800044 	addi	r2,r2,1
    2324:	e0bfff15 	stw	r2,-4(fp)
        len++;
    2328:	e0bffe03 	ldbu	r2,-8(fp)
    232c:	10800044 	addi	r2,r2,1
    2330:	e0bffe05 	stb	r2,-8(fp)
{
    INT8U  len;


    len = 0;
    while (*psrc != OS_ASCII_NUL) {
    2334:	e0bfff17 	ldw	r2,-4(fp)
    2338:	10800003 	ldbu	r2,0(r2)
    233c:	10803fcc 	andi	r2,r2,255
    2340:	1004c03a 	cmpne	r2,r2,zero
    2344:	103ff51e 	bne	r2,zero,231c <OS_StrLen+0x18>
        psrc++;
        len++;
    }
    return (len);
    2348:	e0bffe03 	ldbu	r2,-8(fp)
}
    234c:	e037883a 	mov	sp,fp
    2350:	df000017 	ldw	fp,0(sp)
    2354:	dec00104 	addi	sp,sp,4
    2358:	f800283a 	ret

0000235c <OS_TaskIdle>:
*                 power.
*********************************************************************************************************
*/

void  OS_TaskIdle (void *p_arg)
{
    235c:	defffa04 	addi	sp,sp,-24
    2360:	dfc00515 	stw	ra,20(sp)
    2364:	df000415 	stw	fp,16(sp)
    2368:	df000404 	addi	fp,sp,16
    236c:	e13fff15 	stw	r4,-4(fp)
#if OS_CRITICAL_METHOD == 3                      /* Allocate storage for CPU status register           */
    OS_CPU_SR  cpu_sr = 0;
    2370:	e03ffe15 	stw	zero,-8(fp)
static ALT_INLINE alt_irq_context ALT_ALWAYS_INLINE 
       alt_irq_disable_all (void)
{
  alt_irq_context context;

  NIOS2_READ_STATUS (context);
    2374:	0005303a 	rdctl	r2,status
    2378:	e0bffd15 	stw	r2,-12(fp)

  NIOS2_WRITE_STATUS (context & ~NIOS2_STATUS_PIE_MSK);
    237c:	e0fffd17 	ldw	r3,-12(fp)
    2380:	00bfff84 	movi	r2,-2
    2384:	1884703a 	and	r2,r3,r2
    2388:	1001703a 	wrctl	status,r2
  
  return context;
    238c:	e0bffd17 	ldw	r2,-12(fp)



    (void)p_arg;                                 /* Prevent compiler warning for not using 'p_arg'     */
    for (;;) {
        OS_ENTER_CRITICAL();
    2390:	e0bffe15 	stw	r2,-8(fp)
        OSIdleCtr++;
    2394:	d0a03417 	ldw	r2,-32560(gp)
    2398:	10800044 	addi	r2,r2,1
    239c:	d0a03415 	stw	r2,-32560(gp)
    23a0:	e0bffe17 	ldw	r2,-8(fp)
    23a4:	e0bffc15 	stw	r2,-16(fp)
  status &= ~NIOS2_STATUS_PIE_MSK;
  status |= (context & NIOS2_STATUS_PIE_MSK);
  
  NIOS2_WRITE_STATUS (status);
#else
  NIOS2_WRITE_STATUS (context);
    23a8:	e0bffc17 	ldw	r2,-16(fp)
    23ac:	1001703a 	wrctl	status,r2
        OS_EXIT_CRITICAL();
        OSTaskIdleHook();                        /* Call user definable HOOK                           */
    23b0:	000caf00 	call	caf0 <OSTaskIdleHook>
    }
    23b4:	003fef06 	br	2374 <OS_TaskIdle+0x18>

000023b8 <OS_TaskStat>:
*********************************************************************************************************
*/

#if OS_TASK_STAT_EN > 0
void  OS_TaskStat (void *p_arg)
{
    23b8:	defffa04 	addi	sp,sp,-24
    23bc:	dfc00515 	stw	ra,20(sp)
    23c0:	df000415 	stw	fp,16(sp)
    23c4:	df000404 	addi	fp,sp,16
    23c8:	e13fff15 	stw	r4,-4(fp)
#if OS_CRITICAL_METHOD == 3                      /* Allocate storage for CPU status register           */
    OS_CPU_SR  cpu_sr = 0;
    23cc:	e03ffe15 	stw	zero,-8(fp)
#endif



    (void)p_arg;                                 /* Prevent compiler warning for not using 'p_arg'     */
    while (OSStatRdy == OS_FALSE) {
    23d0:	00000206 	br	23dc <OS_TaskStat+0x24>
        OSTimeDly(2 * OS_TICKS_PER_SEC / 10);    /* Wait until statistic task is ready                 */
    23d4:	01003204 	movi	r4,200
    23d8:	00084380 	call	8438 <OSTimeDly>
#endif



    (void)p_arg;                                 /* Prevent compiler warning for not using 'p_arg'     */
    while (OSStatRdy == OS_FALSE) {
    23dc:	d0a04503 	ldbu	r2,-32492(gp)
    23e0:	10803fcc 	andi	r2,r2,255
    23e4:	1005003a 	cmpeq	r2,r2,zero
    23e8:	103ffa1e 	bne	r2,zero,23d4 <OS_TaskStat+0x1c>
        OSTimeDly(2 * OS_TICKS_PER_SEC / 10);    /* Wait until statistic task is ready                 */
    }
    OSIdleCtrMax /= 100L;
    23ec:	d1203917 	ldw	r4,-32540(gp)
    23f0:	01401904 	movi	r5,100
    23f4:	000e5640 	call	e564 <__udivsi3>
    23f8:	d0a03915 	stw	r2,-32540(gp)
    if (OSIdleCtrMax == 0L) {
    23fc:	d0a03917 	ldw	r2,-32540(gp)
    2400:	1004c03a 	cmpne	r2,r2,zero
    2404:	1000031e 	bne	r2,zero,2414 <OS_TaskStat+0x5c>
        OSCPUUsage = 0;
    2408:	d0203b05 	stb	zero,-32532(gp)
        (void)OSTaskSuspend(OS_PRIO_SELF);
    240c:	01003fc4 	movi	r4,255
    2410:	000804c0 	call	804c <OSTaskSuspend>
static ALT_INLINE alt_irq_context ALT_ALWAYS_INLINE 
       alt_irq_disable_all (void)
{
  alt_irq_context context;

  NIOS2_READ_STATUS (context);
    2414:	0005303a 	rdctl	r2,status
    2418:	e0bffd15 	stw	r2,-12(fp)

  NIOS2_WRITE_STATUS (context & ~NIOS2_STATUS_PIE_MSK);
    241c:	e0fffd17 	ldw	r3,-12(fp)
    2420:	00bfff84 	movi	r2,-2
    2424:	1884703a 	and	r2,r3,r2
    2428:	1001703a 	wrctl	status,r2
  
  return context;
    242c:	e0bffd17 	ldw	r2,-12(fp)
    }
    for (;;) {
        OS_ENTER_CRITICAL();
    2430:	e0bffe15 	stw	r2,-8(fp)
        OSIdleCtrRun = OSIdleCtr;                /* Obtain the of the idle counter for the past second */
    2434:	d0a03417 	ldw	r2,-32560(gp)
    2438:	d0a04615 	stw	r2,-32488(gp)
        OSIdleCtr    = 0L;                       /* Reset the idle counter for the next second         */
    243c:	d0203415 	stw	zero,-32560(gp)
    2440:	e0bffe17 	ldw	r2,-8(fp)
    2444:	e0bffc15 	stw	r2,-16(fp)
  status &= ~NIOS2_STATUS_PIE_MSK;
  status |= (context & NIOS2_STATUS_PIE_MSK);
  
  NIOS2_WRITE_STATUS (status);
#else
  NIOS2_WRITE_STATUS (context);
    2448:	e0bffc17 	ldw	r2,-16(fp)
    244c:	1001703a 	wrctl	status,r2
        OS_EXIT_CRITICAL();
        OSCPUUsage   = (INT8U)(100L - OSIdleCtrRun / OSIdleCtrMax);
    2450:	d1204617 	ldw	r4,-32488(gp)
    2454:	d1603917 	ldw	r5,-32540(gp)
    2458:	000e5640 	call	e564 <__udivsi3>
    245c:	1007883a 	mov	r3,r2
    2460:	00801904 	movi	r2,100
    2464:	10c5c83a 	sub	r2,r2,r3
    2468:	d0a03b05 	stb	r2,-32532(gp)
        OSTaskStatHook();                        /* Invoke user definable hook                         */
    246c:	000ca800 	call	ca80 <OSTaskStatHook>
#if (OS_TASK_STAT_STK_CHK_EN > 0) && (OS_TASK_CREATE_EXT_EN > 0)
        OS_TaskStatStkChk();                     /* Check the stacks for each task                     */
    2470:	00024800 	call	2480 <OS_TaskStatStkChk>
#endif
        OSTimeDly(OS_TICKS_PER_SEC / 10);        /* Accumulate OSIdleCtr for the next 1/10 second      */
    2474:	01001904 	movi	r4,100
    2478:	00084380 	call	8438 <OSTimeDly>
    }
    247c:	003fe506 	br	2414 <OS_TaskStat+0x5c>

00002480 <OS_TaskStatStkChk>:
*********************************************************************************************************
*/

#if (OS_TASK_STAT_STK_CHK_EN > 0) && (OS_TASK_CREATE_EXT_EN > 0)
void  OS_TaskStatStkChk (void)
{
    2480:	defffa04 	addi	sp,sp,-24
    2484:	dfc00515 	stw	ra,20(sp)
    2488:	df000415 	stw	fp,16(sp)
    248c:	df000404 	addi	fp,sp,16
    OS_STK_DATA  stk_data;
    INT8U        err;
    INT8U        prio;


    for (prio = 0; prio <= OS_TASK_IDLE_PRIO; prio++) {
    2490:	e03ffc05 	stb	zero,-16(fp)
    2494:	00002406 	br	2528 <OS_TaskStatStkChk+0xa8>
        err = OSTaskStkChk(prio, &stk_data);
    2498:	e13ffc03 	ldbu	r4,-16(fp)
    249c:	e17ffe04 	addi	r5,fp,-8
    24a0:	0007e500 	call	7e50 <OSTaskStkChk>
    24a4:	e0bffc45 	stb	r2,-15(fp)
        if (err == OS_ERR_NONE) {
    24a8:	e0bffc43 	ldbu	r2,-15(fp)
    24ac:	1004c03a 	cmpne	r2,r2,zero
    24b0:	10001a1e 	bne	r2,zero,251c <OS_TaskStatStkChk+0x9c>
            ptcb = OSTCBPrioTbl[prio];
    24b4:	e0bffc03 	ldbu	r2,-16(fp)
    24b8:	00c000b4 	movhi	r3,2
    24bc:	18ef6f04 	addi	r3,r3,-16964
    24c0:	1085883a 	add	r2,r2,r2
    24c4:	1085883a 	add	r2,r2,r2
    24c8:	10c5883a 	add	r2,r2,r3
    24cc:	10800017 	ldw	r2,0(r2)
    24d0:	e0bffd15 	stw	r2,-12(fp)
            if (ptcb != (OS_TCB *)0) {                               /* Make sure task 'ptcb' is ...   */
    24d4:	e0bffd17 	ldw	r2,-12(fp)
    24d8:	1005003a 	cmpeq	r2,r2,zero
    24dc:	10000f1e 	bne	r2,zero,251c <OS_TaskStatStkChk+0x9c>
                if (ptcb != OS_TCB_RESERVED) {                       /* ... still valid.               */
    24e0:	e0bffd17 	ldw	r2,-12(fp)
    24e4:	10800060 	cmpeqi	r2,r2,1
    24e8:	10000c1e 	bne	r2,zero,251c <OS_TaskStatStkChk+0x9c>
#if OS_TASK_PROFILE_EN > 0
                    #if OS_STK_GROWTH == 1
                    ptcb->OSTCBStkBase = ptcb->OSTCBStkBottom + ptcb->OSTCBStkSize;
    24ec:	e0bffd17 	ldw	r2,-12(fp)
    24f0:	10c00217 	ldw	r3,8(r2)
    24f4:	e0bffd17 	ldw	r2,-12(fp)
    24f8:	10800317 	ldw	r2,12(r2)
    24fc:	1085883a 	add	r2,r2,r2
    2500:	1085883a 	add	r2,r2,r2
    2504:	1887883a 	add	r3,r3,r2
    2508:	e0bffd17 	ldw	r2,-12(fp)
    250c:	10c01115 	stw	r3,68(r2)
                    #else
                    ptcb->OSTCBStkBase = ptcb->OSTCBStkBottom - ptcb->OSTCBStkSize;
                    #endif
                    ptcb->OSTCBStkUsed = stk_data.OSUsed;            /* Store the number of bytes used */
    2510:	e0ffff17 	ldw	r3,-4(fp)
    2514:	e0bffd17 	ldw	r2,-12(fp)
    2518:	10c01215 	stw	r3,72(r2)
    OS_STK_DATA  stk_data;
    INT8U        err;
    INT8U        prio;


    for (prio = 0; prio <= OS_TASK_IDLE_PRIO; prio++) {
    251c:	e0bffc03 	ldbu	r2,-16(fp)
    2520:	10800044 	addi	r2,r2,1
    2524:	e0bffc05 	stb	r2,-16(fp)
    2528:	e0bffc03 	ldbu	r2,-16(fp)
    252c:	10800570 	cmpltui	r2,r2,21
    2530:	103fd91e 	bne	r2,zero,2498 <OS_TaskStatStkChk+0x18>
#endif
                }
            }
        }
    }
}
    2534:	e037883a 	mov	sp,fp
    2538:	dfc00117 	ldw	ra,4(sp)
    253c:	df000017 	ldw	fp,0(sp)
    2540:	dec00204 	addi	sp,sp,8
    2544:	f800283a 	ret

00002548 <OS_TCBInit>:
* Note       : This function is INTERNAL to uC/OS-II and your application should not call it.
*********************************************************************************************************
*/

INT8U  OS_TCBInit (INT8U prio, OS_STK *ptos, OS_STK *pbos, INT16U id, INT32U stk_size, void *pext, INT16U opt)
{
    2548:	defff104 	addi	sp,sp,-60
    254c:	dfc00e15 	stw	ra,56(sp)
    2550:	df000d15 	stw	fp,52(sp)
    2554:	df000d04 	addi	fp,sp,52
    2558:	e17ffb15 	stw	r5,-20(fp)
    255c:	e1bffc15 	stw	r6,-16(fp)
    2560:	e0800417 	ldw	r2,16(fp)
    2564:	e13ffa05 	stb	r4,-24(fp)
    2568:	e1fffd0d 	sth	r7,-12(fp)
    256c:	e0bffe0d 	sth	r2,-8(fp)
    OS_TCB    *ptcb;
#if OS_CRITICAL_METHOD == 3                                /* Allocate storage for CPU status register */
    OS_CPU_SR  cpu_sr = 0;
    2570:	e03ff815 	stw	zero,-32(fp)
static ALT_INLINE alt_irq_context ALT_ALWAYS_INLINE 
       alt_irq_disable_all (void)
{
  alt_irq_context context;

  NIOS2_READ_STATUS (context);
    2574:	0005303a 	rdctl	r2,status
    2578:	e0bff715 	stw	r2,-36(fp)

  NIOS2_WRITE_STATUS (context & ~NIOS2_STATUS_PIE_MSK);
    257c:	e0fff717 	ldw	r3,-36(fp)
    2580:	00bfff84 	movi	r2,-2
    2584:	1884703a 	and	r2,r3,r2
    2588:	1001703a 	wrctl	status,r2
  
  return context;
    258c:	e0bff717 	ldw	r2,-36(fp)
#endif



    OS_ENTER_CRITICAL();
    2590:	e0bff815 	stw	r2,-32(fp)
    ptcb = OSTCBFreeList;                                  /* Get a free TCB from the free TCB list    */
    2594:	d0a03a17 	ldw	r2,-32536(gp)
    2598:	e0bff915 	stw	r2,-28(fp)
    if (ptcb != (OS_TCB *)0) {
    259c:	e0bff917 	ldw	r2,-28(fp)
    25a0:	1005003a 	cmpeq	r2,r2,zero
    25a4:	1000941e 	bne	r2,zero,27f8 <OS_TCBInit+0x2b0>
        OSTCBFreeList            = ptcb->OSTCBNext;        /* Update pointer to free TCB list          */
    25a8:	e0bff917 	ldw	r2,-28(fp)
    25ac:	10800517 	ldw	r2,20(r2)
    25b0:	d0a03a15 	stw	r2,-32536(gp)
    25b4:	e0bff817 	ldw	r2,-32(fp)
    25b8:	e0bff615 	stw	r2,-40(fp)
  status &= ~NIOS2_STATUS_PIE_MSK;
  status |= (context & NIOS2_STATUS_PIE_MSK);
  
  NIOS2_WRITE_STATUS (status);
#else
  NIOS2_WRITE_STATUS (context);
    25bc:	e0bff617 	ldw	r2,-40(fp)
    25c0:	1001703a 	wrctl	status,r2
        OS_EXIT_CRITICAL();
        ptcb->OSTCBStkPtr        = ptos;                   /* Load Stack pointer in TCB                */
    25c4:	e0fff917 	ldw	r3,-28(fp)
    25c8:	e0bffb17 	ldw	r2,-20(fp)
    25cc:	18800015 	stw	r2,0(r3)
        ptcb->OSTCBPrio          = prio;                   /* Load task priority into TCB              */
    25d0:	e0fff917 	ldw	r3,-28(fp)
    25d4:	e0bffa03 	ldbu	r2,-24(fp)
    25d8:	18800c85 	stb	r2,50(r3)
        ptcb->OSTCBStat          = OS_STAT_RDY;            /* Task is ready to run                     */
    25dc:	e0bff917 	ldw	r2,-28(fp)
    25e0:	10000c05 	stb	zero,48(r2)
        ptcb->OSTCBStatPend      = OS_STAT_PEND_OK;        /* Clear pend status                        */
    25e4:	e0bff917 	ldw	r2,-28(fp)
    25e8:	10000c45 	stb	zero,49(r2)
        ptcb->OSTCBDly           = 0;                      /* Task is not delayed                      */
    25ec:	e0bff917 	ldw	r2,-28(fp)
    25f0:	10000b8d 	sth	zero,46(r2)

#if OS_TASK_CREATE_EXT_EN > 0
        ptcb->OSTCBExtPtr        = pext;                   /* Store pointer to TCB extension           */
    25f4:	e0fff917 	ldw	r3,-28(fp)
    25f8:	e0800317 	ldw	r2,12(fp)
    25fc:	18800115 	stw	r2,4(r3)
        ptcb->OSTCBStkSize       = stk_size;               /* Store stack size                         */
    2600:	e0fff917 	ldw	r3,-28(fp)
    2604:	e0800217 	ldw	r2,8(fp)
    2608:	18800315 	stw	r2,12(r3)
        ptcb->OSTCBStkBottom     = pbos;                   /* Store pointer to bottom of stack         */
    260c:	e0fff917 	ldw	r3,-28(fp)
    2610:	e0bffc17 	ldw	r2,-16(fp)
    2614:	18800215 	stw	r2,8(r3)
        ptcb->OSTCBOpt           = opt;                    /* Store task options                       */
    2618:	e0fff917 	ldw	r3,-28(fp)
    261c:	e0bffe0b 	ldhu	r2,-8(fp)
    2620:	1880040d 	sth	r2,16(r3)
        ptcb->OSTCBId            = id;                     /* Store task ID                            */
    2624:	e0fff917 	ldw	r3,-28(fp)
    2628:	e0bffd0b 	ldhu	r2,-12(fp)
    262c:	1880048d 	sth	r2,18(r3)
        opt                      = opt;
        id                       = id;
#endif

#if OS_TASK_DEL_EN > 0
        ptcb->OSTCBDelReq        = OS_ERR_NONE;
    2630:	e0bff917 	ldw	r2,-28(fp)
    2634:	10000dc5 	stb	zero,55(r2)
#endif

#if OS_LOWEST_PRIO <= 63
        ptcb->OSTCBY             = (INT8U)(prio >> 3);          /* Pre-compute X, Y, BitX and BitY     */
    2638:	e0bffa03 	ldbu	r2,-24(fp)
    263c:	1004d0fa 	srli	r2,r2,3
    2640:	1007883a 	mov	r3,r2
    2644:	e0bff917 	ldw	r2,-28(fp)
    2648:	10c00d05 	stb	r3,52(r2)
        ptcb->OSTCBX             = (INT8U)(prio & 0x07);
    264c:	e0bffa03 	ldbu	r2,-24(fp)
    2650:	108001cc 	andi	r2,r2,7
    2654:	1007883a 	mov	r3,r2
    2658:	e0bff917 	ldw	r2,-28(fp)
    265c:	10c00cc5 	stb	r3,51(r2)
        ptcb->OSTCBBitY          = (INT8U)(1 << ptcb->OSTCBY);
    2660:	e0bff917 	ldw	r2,-28(fp)
    2664:	10800d03 	ldbu	r2,52(r2)
    2668:	10c03fcc 	andi	r3,r2,255
    266c:	00800044 	movi	r2,1
    2670:	10c4983a 	sll	r2,r2,r3
    2674:	1007883a 	mov	r3,r2
    2678:	e0bff917 	ldw	r2,-28(fp)
    267c:	10c00d85 	stb	r3,54(r2)
        ptcb->OSTCBBitX          = (INT8U)(1 << ptcb->OSTCBX);
    2680:	e0bff917 	ldw	r2,-28(fp)
    2684:	10800cc3 	ldbu	r2,51(r2)
    2688:	10c03fcc 	andi	r3,r2,255
    268c:	00800044 	movi	r2,1
    2690:	10c4983a 	sll	r2,r2,r3
    2694:	1007883a 	mov	r3,r2
    2698:	e0bff917 	ldw	r2,-28(fp)
    269c:	10c00d45 	stb	r3,53(r2)
        ptcb->OSTCBBitY          = (INT16U)(1 << ptcb->OSTCBY);
        ptcb->OSTCBBitX          = (INT16U)(1 << ptcb->OSTCBX);
#endif

#if (OS_EVENT_EN)
        ptcb->OSTCBEventPtr      = (OS_EVENT  *)0;         /* Task is not pending on an  event         */
    26a0:	e0bff917 	ldw	r2,-28(fp)
    26a4:	10000715 	stw	zero,28(r2)
#if (OS_EVENT_MULTI_EN > 0)
        ptcb->OSTCBEventMultiPtr = (OS_EVENT **)0;         /* Task is not pending on any events        */
    26a8:	e0bff917 	ldw	r2,-28(fp)
    26ac:	10000815 	stw	zero,32(r2)
#endif
#endif

#if (OS_FLAG_EN > 0) && (OS_MAX_FLAGS > 0) && (OS_TASK_DEL_EN > 0)
        ptcb->OSTCBFlagNode  = (OS_FLAG_NODE *)0;          /* Task is not pending on an event flag     */
    26b0:	e0bff917 	ldw	r2,-28(fp)
    26b4:	10000a15 	stw	zero,40(r2)
#endif

#if (OS_MBOX_EN > 0) || ((OS_Q_EN > 0) && (OS_MAX_QS > 0))
        ptcb->OSTCBMsg       = (void *)0;                  /* No message received                      */
    26b8:	e0bff917 	ldw	r2,-28(fp)
    26bc:	10000915 	stw	zero,36(r2)
#endif

#if OS_TASK_PROFILE_EN > 0
        ptcb->OSTCBCtxSwCtr    = 0L;                       /* Initialize profiling variables           */
    26c0:	e0bff917 	ldw	r2,-28(fp)
    26c4:	10000e15 	stw	zero,56(r2)
        ptcb->OSTCBCyclesStart = 0L;
    26c8:	e0bff917 	ldw	r2,-28(fp)
    26cc:	10001015 	stw	zero,64(r2)
        ptcb->OSTCBCyclesTot   = 0L;
    26d0:	e0bff917 	ldw	r2,-28(fp)
    26d4:	10000f15 	stw	zero,60(r2)
        ptcb->OSTCBStkBase     = (OS_STK *)0;
    26d8:	e0bff917 	ldw	r2,-28(fp)
    26dc:	10001115 	stw	zero,68(r2)
        ptcb->OSTCBStkUsed     = 0L;
    26e0:	e0bff917 	ldw	r2,-28(fp)
    26e4:	10001215 	stw	zero,72(r2)
#endif

#if OS_TASK_NAME_SIZE > 1
        ptcb->OSTCBTaskName[0] = '?';                      /* Unknown name at task creation            */
    26e8:	e0fff917 	ldw	r3,-28(fp)
    26ec:	00800fc4 	movi	r2,63
    26f0:	18801305 	stb	r2,76(r3)
        ptcb->OSTCBTaskName[1] = OS_ASCII_NUL;
    26f4:	e0bff917 	ldw	r2,-28(fp)
    26f8:	10001345 	stb	zero,77(r2)
#endif

        OSTCBInitHook(ptcb);
    26fc:	e13ff917 	ldw	r4,-28(fp)
    2700:	000cb0c0 	call	cb0c <OSTCBInitHook>

        OSTaskCreateHook(ptcb);                            /* Call user defined hook                   */
    2704:	e13ff917 	ldw	r4,-28(fp)
    2708:	000ca240 	call	ca24 <OSTaskCreateHook>
static ALT_INLINE alt_irq_context ALT_ALWAYS_INLINE 
       alt_irq_disable_all (void)
{
  alt_irq_context context;

  NIOS2_READ_STATUS (context);
    270c:	0005303a 	rdctl	r2,status
    2710:	e0bff515 	stw	r2,-44(fp)

  NIOS2_WRITE_STATUS (context & ~NIOS2_STATUS_PIE_MSK);
    2714:	e0fff517 	ldw	r3,-44(fp)
    2718:	00bfff84 	movi	r2,-2
    271c:	1884703a 	and	r2,r3,r2
    2720:	1001703a 	wrctl	status,r2
  
  return context;
    2724:	e0bff517 	ldw	r2,-44(fp)

        OS_ENTER_CRITICAL();
    2728:	e0bff815 	stw	r2,-32(fp)
        OSTCBPrioTbl[prio] = ptcb;
    272c:	e0bffa03 	ldbu	r2,-24(fp)
    2730:	00c000b4 	movhi	r3,2
    2734:	18ef6f04 	addi	r3,r3,-16964
    2738:	1085883a 	add	r2,r2,r2
    273c:	1085883a 	add	r2,r2,r2
    2740:	10c7883a 	add	r3,r2,r3
    2744:	e0bff917 	ldw	r2,-28(fp)
    2748:	18800015 	stw	r2,0(r3)
        ptcb->OSTCBNext    = OSTCBList;                    /* Link into TCB chain                      */
    274c:	d0e03617 	ldw	r3,-32552(gp)
    2750:	e0bff917 	ldw	r2,-28(fp)
    2754:	10c00515 	stw	r3,20(r2)
        ptcb->OSTCBPrev    = (OS_TCB *)0;
    2758:	e0bff917 	ldw	r2,-28(fp)
    275c:	10000615 	stw	zero,24(r2)
        if (OSTCBList != (OS_TCB *)0) {
    2760:	d0a03617 	ldw	r2,-32552(gp)
    2764:	1005003a 	cmpeq	r2,r2,zero
    2768:	1000031e 	bne	r2,zero,2778 <OS_TCBInit+0x230>
            OSTCBList->OSTCBPrev = ptcb;
    276c:	d0e03617 	ldw	r3,-32552(gp)
    2770:	e0bff917 	ldw	r2,-28(fp)
    2774:	18800615 	stw	r2,24(r3)
        }
        OSTCBList               = ptcb;
    2778:	e0bff917 	ldw	r2,-28(fp)
    277c:	d0a03615 	stw	r2,-32552(gp)
        OSRdyGrp               |= ptcb->OSTCBBitY;         /* Make task ready to run                   */
    2780:	e0bff917 	ldw	r2,-28(fp)
    2784:	10c00d83 	ldbu	r3,54(r2)
    2788:	d0a03f03 	ldbu	r2,-32516(gp)
    278c:	1884b03a 	or	r2,r3,r2
    2790:	d0a03f05 	stb	r2,-32516(gp)
        OSRdyTbl[ptcb->OSTCBY] |= ptcb->OSTCBBitX;
    2794:	e0bff917 	ldw	r2,-28(fp)
    2798:	10800d03 	ldbu	r2,52(r2)
    279c:	11003fcc 	andi	r4,r2,255
    27a0:	e0bff917 	ldw	r2,-28(fp)
    27a4:	10800d03 	ldbu	r2,52(r2)
    27a8:	10c03fcc 	andi	r3,r2,255
    27ac:	d0a03f44 	addi	r2,gp,-32515
    27b0:	1885883a 	add	r2,r3,r2
    27b4:	10c00003 	ldbu	r3,0(r2)
    27b8:	e0bff917 	ldw	r2,-28(fp)
    27bc:	10800d43 	ldbu	r2,53(r2)
    27c0:	1884b03a 	or	r2,r3,r2
    27c4:	1007883a 	mov	r3,r2
    27c8:	d0a03f44 	addi	r2,gp,-32515
    27cc:	2085883a 	add	r2,r4,r2
    27d0:	10c00005 	stb	r3,0(r2)
        OSTaskCtr++;                                       /* Increment the #tasks counter             */
    27d4:	d0a03b43 	ldbu	r2,-32531(gp)
    27d8:	10800044 	addi	r2,r2,1
    27dc:	d0a03b45 	stb	r2,-32531(gp)
    27e0:	e0bff817 	ldw	r2,-32(fp)
    27e4:	e0bff415 	stw	r2,-48(fp)
  status &= ~NIOS2_STATUS_PIE_MSK;
  status |= (context & NIOS2_STATUS_PIE_MSK);
  
  NIOS2_WRITE_STATUS (status);
#else
  NIOS2_WRITE_STATUS (context);
    27e8:	e0bff417 	ldw	r2,-48(fp)
    27ec:	1001703a 	wrctl	status,r2
        OS_EXIT_CRITICAL();
        return (OS_ERR_NONE);
    27f0:	e03fff15 	stw	zero,-4(fp)
    27f4:	00000606 	br	2810 <OS_TCBInit+0x2c8>
    27f8:	e0bff817 	ldw	r2,-32(fp)
    27fc:	e0bff315 	stw	r2,-52(fp)
    2800:	e0bff317 	ldw	r2,-52(fp)
    2804:	1001703a 	wrctl	status,r2
    }
    OS_EXIT_CRITICAL();
    return (OS_ERR_TASK_NO_MORE_TCB);
    2808:	00801084 	movi	r2,66
    280c:	e0bfff15 	stw	r2,-4(fp)
    2810:	e0bfff17 	ldw	r2,-4(fp)
}
    2814:	e037883a 	mov	sp,fp
    2818:	dfc00117 	ldw	ra,4(sp)
    281c:	df000017 	ldw	fp,0(sp)
    2820:	dec00204 	addi	sp,sp,8
    2824:	f800283a 	ret

00002828 <OSDebugInit>:
*********************************************************************************************************
*/

#if OS_DEBUG_EN > 0
void  OSDebugInit (void)
{
    2828:	defffe04 	addi	sp,sp,-8
    282c:	df000115 	stw	fp,4(sp)
    2830:	df000104 	addi	fp,sp,4
    void  *ptemp;

    
    ptemp = (void *)&OSDebugEn;
    2834:	d0a00204 	addi	r2,gp,-32760
    2838:	e0bfff15 	stw	r2,-4(fp)

    ptemp = (void *)&OSEndiannessTest;
    283c:	d0a00304 	addi	r2,gp,-32756
    2840:	e0bfff15 	stw	r2,-4(fp)

    ptemp = (void *)&OSEventMax;
    2844:	d0a00484 	addi	r2,gp,-32750
    2848:	e0bfff15 	stw	r2,-4(fp)
    ptemp = (void *)&OSEventNameSize;
    284c:	d0a00504 	addi	r2,gp,-32748
    2850:	e0bfff15 	stw	r2,-4(fp)
    ptemp = (void *)&OSEventEn;
    2854:	d0a00404 	addi	r2,gp,-32752
    2858:	e0bfff15 	stw	r2,-4(fp)
    ptemp = (void *)&OSEventSize;
    285c:	d0a00584 	addi	r2,gp,-32746
    2860:	e0bfff15 	stw	r2,-4(fp)
    ptemp = (void *)&OSEventTblSize;
    2864:	d0a00604 	addi	r2,gp,-32744
    2868:	e0bfff15 	stw	r2,-4(fp)
    ptemp = (void *)&OSEventMultiEn;
    286c:	d0a00684 	addi	r2,gp,-32742
    2870:	e0bfff15 	stw	r2,-4(fp)

    ptemp = (void *)&OSFlagEn;
    2874:	d0a00704 	addi	r2,gp,-32740
    2878:	e0bfff15 	stw	r2,-4(fp)
    ptemp = (void *)&OSFlagGrpSize;
    287c:	d0a00784 	addi	r2,gp,-32738
    2880:	e0bfff15 	stw	r2,-4(fp)
    ptemp = (void *)&OSFlagNodeSize;
    2884:	d0a00804 	addi	r2,gp,-32736
    2888:	e0bfff15 	stw	r2,-4(fp)
    ptemp = (void *)&OSFlagWidth;
    288c:	d0a00884 	addi	r2,gp,-32734
    2890:	e0bfff15 	stw	r2,-4(fp)
    ptemp = (void *)&OSFlagMax;
    2894:	d0a00904 	addi	r2,gp,-32732
    2898:	e0bfff15 	stw	r2,-4(fp)
    ptemp = (void *)&OSFlagNameSize;
    289c:	d0a00984 	addi	r2,gp,-32730
    28a0:	e0bfff15 	stw	r2,-4(fp)

    ptemp = (void *)&OSLowestPrio;
    28a4:	d0a00a04 	addi	r2,gp,-32728
    28a8:	e0bfff15 	stw	r2,-4(fp)

    ptemp = (void *)&OSMboxEn;
    28ac:	d0a00a84 	addi	r2,gp,-32726
    28b0:	e0bfff15 	stw	r2,-4(fp)

    ptemp = (void *)&OSMemEn;
    28b4:	d0a00b04 	addi	r2,gp,-32724
    28b8:	e0bfff15 	stw	r2,-4(fp)
    ptemp = (void *)&OSMemMax;
    28bc:	d0a00b84 	addi	r2,gp,-32722
    28c0:	e0bfff15 	stw	r2,-4(fp)
    ptemp = (void *)&OSMemNameSize;
    28c4:	d0a00c04 	addi	r2,gp,-32720
    28c8:	e0bfff15 	stw	r2,-4(fp)
    ptemp = (void *)&OSMemSize;
    28cc:	d0a00c84 	addi	r2,gp,-32718
    28d0:	e0bfff15 	stw	r2,-4(fp)
    ptemp = (void *)&OSMemTblSize;
    28d4:	d0a00d04 	addi	r2,gp,-32716
    28d8:	e0bfff15 	stw	r2,-4(fp)

    ptemp = (void *)&OSMutexEn;
    28dc:	d0a00d84 	addi	r2,gp,-32714
    28e0:	e0bfff15 	stw	r2,-4(fp)

    ptemp = (void *)&OSPtrSize;
    28e4:	d0a00e04 	addi	r2,gp,-32712
    28e8:	e0bfff15 	stw	r2,-4(fp)

    ptemp = (void *)&OSQEn;
    28ec:	d0a00e84 	addi	r2,gp,-32710
    28f0:	e0bfff15 	stw	r2,-4(fp)
    ptemp = (void *)&OSQMax;
    28f4:	d0a00f04 	addi	r2,gp,-32708
    28f8:	e0bfff15 	stw	r2,-4(fp)
    ptemp = (void *)&OSQSize;
    28fc:	d0a00f84 	addi	r2,gp,-32706
    2900:	e0bfff15 	stw	r2,-4(fp)

    ptemp = (void *)&OSRdyTblSize;
    2904:	d0a01004 	addi	r2,gp,-32704
    2908:	e0bfff15 	stw	r2,-4(fp)

    ptemp = (void *)&OSSemEn;
    290c:	d0a01084 	addi	r2,gp,-32702
    2910:	e0bfff15 	stw	r2,-4(fp)

    ptemp = (void *)&OSStkWidth;
    2914:	d0a01104 	addi	r2,gp,-32700
    2918:	e0bfff15 	stw	r2,-4(fp)

    ptemp = (void *)&OSTaskCreateEn;
    291c:	d0a01184 	addi	r2,gp,-32698
    2920:	e0bfff15 	stw	r2,-4(fp)
    ptemp = (void *)&OSTaskCreateExtEn;
    2924:	d0a01204 	addi	r2,gp,-32696
    2928:	e0bfff15 	stw	r2,-4(fp)
    ptemp = (void *)&OSTaskDelEn;
    292c:	d0a01284 	addi	r2,gp,-32694
    2930:	e0bfff15 	stw	r2,-4(fp)
    ptemp = (void *)&OSTaskIdleStkSize;
    2934:	d0a01304 	addi	r2,gp,-32692
    2938:	e0bfff15 	stw	r2,-4(fp)
    ptemp = (void *)&OSTaskProfileEn;
    293c:	d0a01384 	addi	r2,gp,-32690
    2940:	e0bfff15 	stw	r2,-4(fp)
    ptemp = (void *)&OSTaskMax;
    2944:	d0a01404 	addi	r2,gp,-32688
    2948:	e0bfff15 	stw	r2,-4(fp)
    ptemp = (void *)&OSTaskNameSize;
    294c:	d0a01484 	addi	r2,gp,-32686
    2950:	e0bfff15 	stw	r2,-4(fp)
    ptemp = (void *)&OSTaskStatEn;
    2954:	d0a01504 	addi	r2,gp,-32684
    2958:	e0bfff15 	stw	r2,-4(fp)
    ptemp = (void *)&OSTaskStatStkSize;
    295c:	d0a01584 	addi	r2,gp,-32682
    2960:	e0bfff15 	stw	r2,-4(fp)
    ptemp = (void *)&OSTaskStatStkChkEn;
    2964:	d0a01604 	addi	r2,gp,-32680
    2968:	e0bfff15 	stw	r2,-4(fp)
    ptemp = (void *)&OSTaskSwHookEn;
    296c:	d0a01684 	addi	r2,gp,-32678
    2970:	e0bfff15 	stw	r2,-4(fp)

    ptemp = (void *)&OSTCBPrioTblMax;
    2974:	d0a01704 	addi	r2,gp,-32676
    2978:	e0bfff15 	stw	r2,-4(fp)
    ptemp = (void *)&OSTCBSize;
    297c:	d0a01784 	addi	r2,gp,-32674
    2980:	e0bfff15 	stw	r2,-4(fp)

    ptemp = (void *)&OSTicksPerSec;
    2984:	d0a01804 	addi	r2,gp,-32672
    2988:	e0bfff15 	stw	r2,-4(fp)
    ptemp = (void *)&OSTimeTickHookEn;
    298c:	d0a01884 	addi	r2,gp,-32670
    2990:	e0bfff15 	stw	r2,-4(fp)

    ptemp = (void *)&OSTmrWheelSize;
    ptemp = (void *)&OSTmrWheelTblSize;
#endif

    ptemp = (void *)&OSVersionNbr;
    2994:	d0a01904 	addi	r2,gp,-32668
    2998:	e0bfff15 	stw	r2,-4(fp)

    ptemp = (void *)&OSDataSize;
    299c:	d0a01e04 	addi	r2,gp,-32648
    29a0:	e0bfff15 	stw	r2,-4(fp)

    ptemp = ptemp;                             /* Prevent compiler warning for 'ptemp' not being used! */
}
    29a4:	e037883a 	mov	sp,fp
    29a8:	df000017 	ldw	fp,0(sp)
    29ac:	dec00104 	addi	sp,sp,4
    29b0:	f800283a 	ret

000029b4 <OSFlagAccept>:
*********************************************************************************************************
*/

#if OS_FLAG_ACCEPT_EN > 0
OS_FLAGS  OSFlagAccept (OS_FLAG_GRP *pgrp, OS_FLAGS flags, INT8U wait_type, INT8U *perr)
{
    29b4:	defff104 	addi	sp,sp,-60
    29b8:	df000e15 	stw	fp,56(sp)
    29bc:	df000e04 	addi	fp,sp,56
    29c0:	e13ffa15 	stw	r4,-24(fp)
    29c4:	e1fffd15 	stw	r7,-12(fp)
    29c8:	e17ffb0d 	sth	r5,-20(fp)
    29cc:	e1bffc05 	stb	r6,-16(fp)
    OS_FLAGS      flags_rdy;
    INT8U         result;
    BOOLEAN       consume;
#if OS_CRITICAL_METHOD == 3                                /* Allocate storage for CPU status register */
    OS_CPU_SR     cpu_sr = 0;
    29d0:	e03ff815 	stw	zero,-32(fp)
#endif



#if OS_ARG_CHK_EN > 0
    if (perr == (INT8U *)0) {                              /* Validate 'perr'                          */
    29d4:	e0bffd17 	ldw	r2,-12(fp)
    29d8:	1004c03a 	cmpne	r2,r2,zero
    29dc:	1000021e 	bne	r2,zero,29e8 <OSFlagAccept+0x34>
        return ((OS_FLAGS)0);
    29e0:	e03fff15 	stw	zero,-4(fp)
    29e4:	0000bb06 	br	2cd4 <OSFlagAccept+0x320>
    }
    if (pgrp == (OS_FLAG_GRP *)0) {                        /* Validate 'pgrp'                          */
    29e8:	e0bffa17 	ldw	r2,-24(fp)
    29ec:	1004c03a 	cmpne	r2,r2,zero
    29f0:	1000051e 	bne	r2,zero,2a08 <OSFlagAccept+0x54>
        *perr = OS_ERR_FLAG_INVALID_PGRP;
    29f4:	e0fffd17 	ldw	r3,-12(fp)
    29f8:	00801b84 	movi	r2,110
    29fc:	18800005 	stb	r2,0(r3)
        return ((OS_FLAGS)0);
    2a00:	e03fff15 	stw	zero,-4(fp)
    2a04:	0000b306 	br	2cd4 <OSFlagAccept+0x320>
    }
#endif
    if (pgrp->OSFlagType != OS_EVENT_TYPE_FLAG) {          /* Validate event block type                */
    2a08:	e0bffa17 	ldw	r2,-24(fp)
    2a0c:	10800003 	ldbu	r2,0(r2)
    2a10:	10803fcc 	andi	r2,r2,255
    2a14:	10800160 	cmpeqi	r2,r2,5
    2a18:	1000051e 	bne	r2,zero,2a30 <OSFlagAccept+0x7c>
        *perr = OS_ERR_EVENT_TYPE;
    2a1c:	e0fffd17 	ldw	r3,-12(fp)
    2a20:	00800044 	movi	r2,1
    2a24:	18800005 	stb	r2,0(r3)
        return ((OS_FLAGS)0);
    2a28:	e03fff15 	stw	zero,-4(fp)
    2a2c:	0000a906 	br	2cd4 <OSFlagAccept+0x320>
    }
    result = (INT8U)(wait_type & OS_FLAG_CONSUME);
    2a30:	e0fffc03 	ldbu	r3,-16(fp)
    2a34:	00bfe004 	movi	r2,-128
    2a38:	1884703a 	and	r2,r3,r2
    2a3c:	e0bff945 	stb	r2,-27(fp)
    if (result != (INT8U)0) {                              /* See if we need to consume the flags      */
    2a40:	e0bff943 	ldbu	r2,-27(fp)
    2a44:	1005003a 	cmpeq	r2,r2,zero
    2a48:	1000061e 	bne	r2,zero,2a64 <OSFlagAccept+0xb0>
        wait_type &= ~OS_FLAG_CONSUME;
    2a4c:	e0bffc03 	ldbu	r2,-16(fp)
    2a50:	10801fcc 	andi	r2,r2,127
    2a54:	e0bffc05 	stb	r2,-16(fp)
        consume    = OS_TRUE;
    2a58:	00800044 	movi	r2,1
    2a5c:	e0bff905 	stb	r2,-28(fp)
    2a60:	00000106 	br	2a68 <OSFlagAccept+0xb4>
    } else {
        consume    = OS_FALSE;
    2a64:	e03ff905 	stb	zero,-28(fp)
    }
/*$PAGE*/
    *perr = OS_ERR_NONE;                                   /* Assume NO error until proven otherwise.  */
    2a68:	e0bffd17 	ldw	r2,-12(fp)
    2a6c:	10000005 	stb	zero,0(r2)
static ALT_INLINE alt_irq_context ALT_ALWAYS_INLINE 
       alt_irq_disable_all (void)
{
  alt_irq_context context;

  NIOS2_READ_STATUS (context);
    2a70:	0005303a 	rdctl	r2,status
    2a74:	e0bff715 	stw	r2,-36(fp)

  NIOS2_WRITE_STATUS (context & ~NIOS2_STATUS_PIE_MSK);
    2a78:	e0fff717 	ldw	r3,-36(fp)
    2a7c:	00bfff84 	movi	r2,-2
    2a80:	1884703a 	and	r2,r3,r2
    2a84:	1001703a 	wrctl	status,r2
  
  return context;
    2a88:	e0bff717 	ldw	r2,-36(fp)
    OS_ENTER_CRITICAL();
    2a8c:	e0bff815 	stw	r2,-32(fp)
    switch (wait_type) {
    2a90:	e0bffc03 	ldbu	r2,-16(fp)
    2a94:	e0bffe15 	stw	r2,-8(fp)
    2a98:	e0fffe17 	ldw	r3,-8(fp)
    2a9c:	18800060 	cmpeqi	r2,r3,1
    2aa0:	1000651e 	bne	r2,zero,2c38 <OSFlagAccept+0x284>
    2aa4:	e0fffe17 	ldw	r3,-8(fp)
    2aa8:	18800088 	cmpgei	r2,r3,2
    2aac:	1000041e 	bne	r2,zero,2ac0 <OSFlagAccept+0x10c>
    2ab0:	e0fffe17 	ldw	r3,-8(fp)
    2ab4:	1805003a 	cmpeq	r2,r3,zero
    2ab8:	1000421e 	bne	r2,zero,2bc4 <OSFlagAccept+0x210>
    2abc:	00007b06 	br	2cac <OSFlagAccept+0x2f8>
    2ac0:	e0fffe17 	ldw	r3,-8(fp)
    2ac4:	188000a0 	cmpeqi	r2,r3,2
    2ac8:	1000041e 	bne	r2,zero,2adc <OSFlagAccept+0x128>
    2acc:	e0fffe17 	ldw	r3,-8(fp)
    2ad0:	188000e0 	cmpeqi	r2,r3,3
    2ad4:	10001e1e 	bne	r2,zero,2b50 <OSFlagAccept+0x19c>
    2ad8:	00007406 	br	2cac <OSFlagAccept+0x2f8>
        case OS_FLAG_WAIT_SET_ALL:                         /* See if all required flags are set        */
             flags_rdy = (OS_FLAGS)(pgrp->OSFlagFlags & flags);     /* Extract only the bits we want   */
    2adc:	e0bffa17 	ldw	r2,-24(fp)
    2ae0:	10c0020b 	ldhu	r3,8(r2)
    2ae4:	e0bffb0b 	ldhu	r2,-20(fp)
    2ae8:	1884703a 	and	r2,r3,r2
    2aec:	e0bff98d 	sth	r2,-26(fp)
             if (flags_rdy == flags) {                     /* Must match ALL the bits that we want     */
    2af0:	e0fff98b 	ldhu	r3,-26(fp)
    2af4:	e0bffb0b 	ldhu	r2,-20(fp)
    2af8:	18800d1e 	bne	r3,r2,2b30 <OSFlagAccept+0x17c>
                 if (consume == OS_TRUE) {                 /* See if we need to consume the flags      */
    2afc:	e0bff903 	ldbu	r2,-28(fp)
    2b00:	10800058 	cmpnei	r2,r2,1
    2b04:	10000d1e 	bne	r2,zero,2b3c <OSFlagAccept+0x188>
                     pgrp->OSFlagFlags &= ~flags_rdy;      /* Clear ONLY the flags that we wanted      */
    2b08:	e0bffa17 	ldw	r2,-24(fp)
    2b0c:	1080020b 	ldhu	r2,8(r2)
    2b10:	1007883a 	mov	r3,r2
    2b14:	e0bff98b 	ldhu	r2,-26(fp)
    2b18:	0084303a 	nor	r2,zero,r2
    2b1c:	1884703a 	and	r2,r3,r2
    2b20:	1007883a 	mov	r3,r2
    2b24:	e0bffa17 	ldw	r2,-24(fp)
    2b28:	10c0020d 	sth	r3,8(r2)
    2b2c:	00000306 	br	2b3c <OSFlagAccept+0x188>
                 }
             } else {
                 *perr = OS_ERR_FLAG_NOT_RDY;
    2b30:	e0fffd17 	ldw	r3,-12(fp)
    2b34:	00801c04 	movi	r2,112
    2b38:	18800005 	stb	r2,0(r3)
    2b3c:	e0bff817 	ldw	r2,-32(fp)
    2b40:	e0bff615 	stw	r2,-40(fp)
  status &= ~NIOS2_STATUS_PIE_MSK;
  status |= (context & NIOS2_STATUS_PIE_MSK);
  
  NIOS2_WRITE_STATUS (status);
#else
  NIOS2_WRITE_STATUS (context);
    2b44:	e0bff617 	ldw	r2,-40(fp)
    2b48:	1001703a 	wrctl	status,r2
             }
             OS_EXIT_CRITICAL();
             break;
    2b4c:	00005f06 	br	2ccc <OSFlagAccept+0x318>

        case OS_FLAG_WAIT_SET_ANY:
             flags_rdy = (OS_FLAGS)(pgrp->OSFlagFlags & flags);     /* Extract only the bits we want   */
    2b50:	e0bffa17 	ldw	r2,-24(fp)
    2b54:	10c0020b 	ldhu	r3,8(r2)
    2b58:	e0bffb0b 	ldhu	r2,-20(fp)
    2b5c:	1884703a 	and	r2,r3,r2
    2b60:	e0bff98d 	sth	r2,-26(fp)
             if (flags_rdy != (OS_FLAGS)0) {               /* See if any flag set                      */
    2b64:	e0bff98b 	ldhu	r2,-26(fp)
    2b68:	1005003a 	cmpeq	r2,r2,zero
    2b6c:	10000d1e 	bne	r2,zero,2ba4 <OSFlagAccept+0x1f0>
                 if (consume == OS_TRUE) {                 /* See if we need to consume the flags      */
    2b70:	e0bff903 	ldbu	r2,-28(fp)
    2b74:	10800058 	cmpnei	r2,r2,1
    2b78:	10000d1e 	bne	r2,zero,2bb0 <OSFlagAccept+0x1fc>
                     pgrp->OSFlagFlags &= ~flags_rdy;      /* Clear ONLY the flags that we got         */
    2b7c:	e0bffa17 	ldw	r2,-24(fp)
    2b80:	1080020b 	ldhu	r2,8(r2)
    2b84:	1007883a 	mov	r3,r2
    2b88:	e0bff98b 	ldhu	r2,-26(fp)
    2b8c:	0084303a 	nor	r2,zero,r2
    2b90:	1884703a 	and	r2,r3,r2
    2b94:	1007883a 	mov	r3,r2
    2b98:	e0bffa17 	ldw	r2,-24(fp)
    2b9c:	10c0020d 	sth	r3,8(r2)
    2ba0:	00000306 	br	2bb0 <OSFlagAccept+0x1fc>
                 }
             } else {
                 *perr = OS_ERR_FLAG_NOT_RDY;
    2ba4:	e0fffd17 	ldw	r3,-12(fp)
    2ba8:	00801c04 	movi	r2,112
    2bac:	18800005 	stb	r2,0(r3)
    2bb0:	e0bff817 	ldw	r2,-32(fp)
    2bb4:	e0bff515 	stw	r2,-44(fp)
    2bb8:	e0bff517 	ldw	r2,-44(fp)
    2bbc:	1001703a 	wrctl	status,r2
             }
             OS_EXIT_CRITICAL();
             break;
    2bc0:	00004206 	br	2ccc <OSFlagAccept+0x318>

#if OS_FLAG_WAIT_CLR_EN > 0
        case OS_FLAG_WAIT_CLR_ALL:                         /* See if all required flags are cleared    */
             flags_rdy = (OS_FLAGS)(~pgrp->OSFlagFlags & flags);  /* Extract only the bits we want     */
    2bc4:	e0bffa17 	ldw	r2,-24(fp)
    2bc8:	1080020b 	ldhu	r2,8(r2)
    2bcc:	0084303a 	nor	r2,zero,r2
    2bd0:	1007883a 	mov	r3,r2
    2bd4:	e0bffb0b 	ldhu	r2,-20(fp)
    2bd8:	1884703a 	and	r2,r3,r2
    2bdc:	e0bff98d 	sth	r2,-26(fp)
             if (flags_rdy == flags) {                     /* Must match ALL the bits that we want     */
    2be0:	e0fff98b 	ldhu	r3,-26(fp)
    2be4:	e0bffb0b 	ldhu	r2,-20(fp)
    2be8:	18800b1e 	bne	r3,r2,2c18 <OSFlagAccept+0x264>
                 if (consume == OS_TRUE) {                 /* See if we need to consume the flags      */
    2bec:	e0bff903 	ldbu	r2,-28(fp)
    2bf0:	10800058 	cmpnei	r2,r2,1
    2bf4:	10000b1e 	bne	r2,zero,2c24 <OSFlagAccept+0x270>
                     pgrp->OSFlagFlags |= flags_rdy;       /* Set ONLY the flags that we wanted        */
    2bf8:	e0bffa17 	ldw	r2,-24(fp)
    2bfc:	10c0020b 	ldhu	r3,8(r2)
    2c00:	e0bff98b 	ldhu	r2,-26(fp)
    2c04:	1884b03a 	or	r2,r3,r2
    2c08:	1007883a 	mov	r3,r2
    2c0c:	e0bffa17 	ldw	r2,-24(fp)
    2c10:	10c0020d 	sth	r3,8(r2)
    2c14:	00000306 	br	2c24 <OSFlagAccept+0x270>
                 }
             } else {
                 *perr = OS_ERR_FLAG_NOT_RDY;
    2c18:	e0fffd17 	ldw	r3,-12(fp)
    2c1c:	00801c04 	movi	r2,112
    2c20:	18800005 	stb	r2,0(r3)
    2c24:	e0bff817 	ldw	r2,-32(fp)
    2c28:	e0bff415 	stw	r2,-48(fp)
    2c2c:	e0bff417 	ldw	r2,-48(fp)
    2c30:	1001703a 	wrctl	status,r2
             }
             OS_EXIT_CRITICAL();
             break;
    2c34:	00002506 	br	2ccc <OSFlagAccept+0x318>

        case OS_FLAG_WAIT_CLR_ANY:
             flags_rdy = (OS_FLAGS)(~pgrp->OSFlagFlags & flags); /* Extract only the bits we want      */
    2c38:	e0bffa17 	ldw	r2,-24(fp)
    2c3c:	1080020b 	ldhu	r2,8(r2)
    2c40:	0084303a 	nor	r2,zero,r2
    2c44:	1007883a 	mov	r3,r2
    2c48:	e0bffb0b 	ldhu	r2,-20(fp)
    2c4c:	1884703a 	and	r2,r3,r2
    2c50:	e0bff98d 	sth	r2,-26(fp)
             if (flags_rdy != (OS_FLAGS)0) {               /* See if any flag cleared                  */
    2c54:	e0bff98b 	ldhu	r2,-26(fp)
    2c58:	1005003a 	cmpeq	r2,r2,zero
    2c5c:	10000b1e 	bne	r2,zero,2c8c <OSFlagAccept+0x2d8>
                 if (consume == OS_TRUE) {                 /* See if we need to consume the flags      */
    2c60:	e0bff903 	ldbu	r2,-28(fp)
    2c64:	10800058 	cmpnei	r2,r2,1
    2c68:	10000b1e 	bne	r2,zero,2c98 <OSFlagAccept+0x2e4>
                     pgrp->OSFlagFlags |= flags_rdy;       /* Set ONLY the flags that we got           */
    2c6c:	e0bffa17 	ldw	r2,-24(fp)
    2c70:	10c0020b 	ldhu	r3,8(r2)
    2c74:	e0bff98b 	ldhu	r2,-26(fp)
    2c78:	1884b03a 	or	r2,r3,r2
    2c7c:	1007883a 	mov	r3,r2
    2c80:	e0bffa17 	ldw	r2,-24(fp)
    2c84:	10c0020d 	sth	r3,8(r2)
    2c88:	00000306 	br	2c98 <OSFlagAccept+0x2e4>
                 }
             } else {
                 *perr = OS_ERR_FLAG_NOT_RDY;
    2c8c:	e0fffd17 	ldw	r3,-12(fp)
    2c90:	00801c04 	movi	r2,112
    2c94:	18800005 	stb	r2,0(r3)
    2c98:	e0bff817 	ldw	r2,-32(fp)
    2c9c:	e0bff315 	stw	r2,-52(fp)
    2ca0:	e0bff317 	ldw	r2,-52(fp)
    2ca4:	1001703a 	wrctl	status,r2
             }
             OS_EXIT_CRITICAL();
             break;
    2ca8:	00000806 	br	2ccc <OSFlagAccept+0x318>
    2cac:	e0bff817 	ldw	r2,-32(fp)
    2cb0:	e0bff215 	stw	r2,-56(fp)
    2cb4:	e0bff217 	ldw	r2,-56(fp)
    2cb8:	1001703a 	wrctl	status,r2
#endif

        default:
             OS_EXIT_CRITICAL();
             flags_rdy = (OS_FLAGS)0;
    2cbc:	e03ff98d 	sth	zero,-26(fp)
             *perr     = OS_ERR_FLAG_WAIT_TYPE;
    2cc0:	e0fffd17 	ldw	r3,-12(fp)
    2cc4:	00801bc4 	movi	r2,111
    2cc8:	18800005 	stb	r2,0(r3)
             break;
    }
    return (flags_rdy);
    2ccc:	e0bff98b 	ldhu	r2,-26(fp)
    2cd0:	e0bfff15 	stw	r2,-4(fp)
    2cd4:	e0bfff17 	ldw	r2,-4(fp)
}
    2cd8:	e037883a 	mov	sp,fp
    2cdc:	df000017 	ldw	fp,0(sp)
    2ce0:	dec00104 	addi	sp,sp,4
    2ce4:	f800283a 	ret

00002ce8 <OSFlagCreate>:
* Called from: Task ONLY
*********************************************************************************************************
*/

OS_FLAG_GRP  *OSFlagCreate (OS_FLAGS flags, INT8U *perr)
{
    2ce8:	defff704 	addi	sp,sp,-36
    2cec:	df000815 	stw	fp,32(sp)
    2cf0:	df000804 	addi	fp,sp,32
    2cf4:	e17ffe15 	stw	r5,-8(fp)
    2cf8:	e13ffd0d 	sth	r4,-12(fp)
    OS_FLAG_GRP *pgrp;
#if OS_CRITICAL_METHOD == 3                         /* Allocate storage for CPU status register        */
    OS_CPU_SR    cpu_sr = 0;
    2cfc:	e03ffb15 	stw	zero,-20(fp)
#endif



#if OS_ARG_CHK_EN > 0
    if (perr == (INT8U *)0) {                       /* Validate 'perr'                                 */
    2d00:	e0bffe17 	ldw	r2,-8(fp)
    2d04:	1004c03a 	cmpne	r2,r2,zero
    2d08:	1000021e 	bne	r2,zero,2d14 <OSFlagCreate+0x2c>
        return ((OS_FLAG_GRP *)0);
    2d0c:	e03fff15 	stw	zero,-4(fp)
    2d10:	00003f06 	br	2e10 <OSFlagCreate+0x128>
    }
#endif
    if (OSIntNesting > 0) {                         /* See if called from ISR ...                      */
    2d14:	00800074 	movhi	r2,1
    2d18:	1082f004 	addi	r2,r2,3008
    2d1c:	10800003 	ldbu	r2,0(r2)
    2d20:	10803fcc 	andi	r2,r2,255
    2d24:	1005003a 	cmpeq	r2,r2,zero
    2d28:	1000051e 	bne	r2,zero,2d40 <OSFlagCreate+0x58>
        *perr = OS_ERR_CREATE_ISR;                  /* ... can't CREATE from an ISR                    */
    2d2c:	e0fffe17 	ldw	r3,-8(fp)
    2d30:	00800404 	movi	r2,16
    2d34:	18800005 	stb	r2,0(r3)
        return ((OS_FLAG_GRP *)0);
    2d38:	e03fff15 	stw	zero,-4(fp)
    2d3c:	00003406 	br	2e10 <OSFlagCreate+0x128>
static ALT_INLINE alt_irq_context ALT_ALWAYS_INLINE 
       alt_irq_disable_all (void)
{
  alt_irq_context context;

  NIOS2_READ_STATUS (context);
    2d40:	0005303a 	rdctl	r2,status
    2d44:	e0bffa15 	stw	r2,-24(fp)

  NIOS2_WRITE_STATUS (context & ~NIOS2_STATUS_PIE_MSK);
    2d48:	e0fffa17 	ldw	r3,-24(fp)
    2d4c:	00bfff84 	movi	r2,-2
    2d50:	1884703a 	and	r2,r3,r2
    2d54:	1001703a 	wrctl	status,r2
  
  return context;
    2d58:	e0bffa17 	ldw	r2,-24(fp)
    }
    OS_ENTER_CRITICAL();
    2d5c:	e0bffb15 	stw	r2,-20(fp)
    pgrp = OSFlagFreeList;                          /* Get next free event flag                        */
    2d60:	00800074 	movhi	r2,1
    2d64:	1082f304 	addi	r2,r2,3020
    2d68:	10800017 	ldw	r2,0(r2)
    2d6c:	e0bffc15 	stw	r2,-16(fp)
    if (pgrp != (OS_FLAG_GRP *)0) {                 /* See if we have event flag groups available      */
    2d70:	e0bffc17 	ldw	r2,-16(fp)
    2d74:	1005003a 	cmpeq	r2,r2,zero
    2d78:	10001c1e 	bne	r2,zero,2dec <OSFlagCreate+0x104>
                                                    /* Adjust free list                                */
        OSFlagFreeList       = (OS_FLAG_GRP *)OSFlagFreeList->OSFlagWaitList;
    2d7c:	00800074 	movhi	r2,1
    2d80:	1082f304 	addi	r2,r2,3020
    2d84:	10800017 	ldw	r2,0(r2)
    2d88:	10800117 	ldw	r2,4(r2)
    2d8c:	1007883a 	mov	r3,r2
    2d90:	00800074 	movhi	r2,1
    2d94:	1082f304 	addi	r2,r2,3020
    2d98:	10c00015 	stw	r3,0(r2)
        pgrp->OSFlagType     = OS_EVENT_TYPE_FLAG;  /* Set to event flag group type                    */
    2d9c:	e0fffc17 	ldw	r3,-16(fp)
    2da0:	00800144 	movi	r2,5
    2da4:	18800005 	stb	r2,0(r3)
        pgrp->OSFlagFlags    = flags;               /* Set to desired initial value                    */
    2da8:	e0fffc17 	ldw	r3,-16(fp)
    2dac:	e0bffd0b 	ldhu	r2,-12(fp)
    2db0:	1880020d 	sth	r2,8(r3)
        pgrp->OSFlagWaitList = (void *)0;           /* Clear list of tasks waiting on flags            */
    2db4:	e0bffc17 	ldw	r2,-16(fp)
    2db8:	10000115 	stw	zero,4(r2)
#if OS_FLAG_NAME_SIZE > 1
        pgrp->OSFlagName[0]  = '?';
    2dbc:	e0fffc17 	ldw	r3,-16(fp)
    2dc0:	00800fc4 	movi	r2,63
    2dc4:	18800285 	stb	r2,10(r3)
        pgrp->OSFlagName[1]  = OS_ASCII_NUL;
    2dc8:	e0bffc17 	ldw	r2,-16(fp)
    2dcc:	100002c5 	stb	zero,11(r2)
    2dd0:	e0bffb17 	ldw	r2,-20(fp)
    2dd4:	e0bff915 	stw	r2,-28(fp)
  status &= ~NIOS2_STATUS_PIE_MSK;
  status |= (context & NIOS2_STATUS_PIE_MSK);
  
  NIOS2_WRITE_STATUS (status);
#else
  NIOS2_WRITE_STATUS (context);
    2dd8:	e0bff917 	ldw	r2,-28(fp)
    2ddc:	1001703a 	wrctl	status,r2
#endif
        OS_EXIT_CRITICAL();
        *perr                = OS_ERR_NONE;
    2de0:	e0bffe17 	ldw	r2,-8(fp)
    2de4:	10000005 	stb	zero,0(r2)
    2de8:	00000706 	br	2e08 <OSFlagCreate+0x120>
    2dec:	e0bffb17 	ldw	r2,-20(fp)
    2df0:	e0bff815 	stw	r2,-32(fp)
    2df4:	e0bff817 	ldw	r2,-32(fp)
    2df8:	1001703a 	wrctl	status,r2
    } else {
        OS_EXIT_CRITICAL();
        *perr                = OS_ERR_FLAG_GRP_DEPLETED;
    2dfc:	e0fffe17 	ldw	r3,-8(fp)
    2e00:	00801c84 	movi	r2,114
    2e04:	18800005 	stb	r2,0(r3)
    }
    return (pgrp);                                  /* Return pointer to event flag group              */
    2e08:	e0bffc17 	ldw	r2,-16(fp)
    2e0c:	e0bfff15 	stw	r2,-4(fp)
    2e10:	e0bfff17 	ldw	r2,-4(fp)
}
    2e14:	e037883a 	mov	sp,fp
    2e18:	df000017 	ldw	fp,0(sp)
    2e1c:	dec00104 	addi	sp,sp,4
    2e20:	f800283a 	ret

00002e24 <OSFlagDel>:
*********************************************************************************************************
*/

#if OS_FLAG_DEL_EN > 0
OS_FLAG_GRP  *OSFlagDel (OS_FLAG_GRP *pgrp, INT8U opt, INT8U *perr)
{
    2e24:	defff004 	addi	sp,sp,-64
    2e28:	dfc00f15 	stw	ra,60(sp)
    2e2c:	df000e15 	stw	fp,56(sp)
    2e30:	df000e04 	addi	fp,sp,56
    2e34:	e13ffb15 	stw	r4,-20(fp)
    2e38:	e1bffd15 	stw	r6,-12(fp)
    2e3c:	e17ffc05 	stb	r5,-16(fp)
    BOOLEAN       tasks_waiting;
    OS_FLAG_NODE *pnode;
    OS_FLAG_GRP  *pgrp_return;
#if OS_CRITICAL_METHOD == 3                                /* Allocate storage for CPU status register */
    OS_CPU_SR     cpu_sr = 0;
    2e40:	e03ff715 	stw	zero,-36(fp)
#endif



#if OS_ARG_CHK_EN > 0
    if (perr == (INT8U *)0) {                              /* Validate 'perr'                          */
    2e44:	e0bffd17 	ldw	r2,-12(fp)
    2e48:	1004c03a 	cmpne	r2,r2,zero
    2e4c:	1000031e 	bne	r2,zero,2e5c <OSFlagDel+0x38>
        return (pgrp);
    2e50:	e0bffb17 	ldw	r2,-20(fp)
    2e54:	e0bfff15 	stw	r2,-4(fp)
    2e58:	00009606 	br	30b4 <OSFlagDel+0x290>
    }
    if (pgrp == (OS_FLAG_GRP *)0) {                        /* Validate 'pgrp'                          */
    2e5c:	e0bffb17 	ldw	r2,-20(fp)
    2e60:	1004c03a 	cmpne	r2,r2,zero
    2e64:	1000061e 	bne	r2,zero,2e80 <OSFlagDel+0x5c>
        *perr = OS_ERR_FLAG_INVALID_PGRP;
    2e68:	e0fffd17 	ldw	r3,-12(fp)
    2e6c:	00801b84 	movi	r2,110
    2e70:	18800005 	stb	r2,0(r3)
        return (pgrp);
    2e74:	e0fffb17 	ldw	r3,-20(fp)
    2e78:	e0ffff15 	stw	r3,-4(fp)
    2e7c:	00008d06 	br	30b4 <OSFlagDel+0x290>
    }
#endif
    if (OSIntNesting > 0) {                                /* See if called from ISR ...               */
    2e80:	00800074 	movhi	r2,1
    2e84:	1082f004 	addi	r2,r2,3008
    2e88:	10800003 	ldbu	r2,0(r2)
    2e8c:	10803fcc 	andi	r2,r2,255
    2e90:	1005003a 	cmpeq	r2,r2,zero
    2e94:	1000061e 	bne	r2,zero,2eb0 <OSFlagDel+0x8c>
        *perr = OS_ERR_DEL_ISR;                            /* ... can't DELETE from an ISR             */
    2e98:	e0fffd17 	ldw	r3,-12(fp)
    2e9c:	008003c4 	movi	r2,15
    2ea0:	18800005 	stb	r2,0(r3)
        return (pgrp);
    2ea4:	e0bffb17 	ldw	r2,-20(fp)
    2ea8:	e0bfff15 	stw	r2,-4(fp)
    2eac:	00008106 	br	30b4 <OSFlagDel+0x290>
    }
    if (pgrp->OSFlagType != OS_EVENT_TYPE_FLAG) {          /* Validate event group type                */
    2eb0:	e0bffb17 	ldw	r2,-20(fp)
    2eb4:	10800003 	ldbu	r2,0(r2)
    2eb8:	10803fcc 	andi	r2,r2,255
    2ebc:	10800160 	cmpeqi	r2,r2,5
    2ec0:	1000061e 	bne	r2,zero,2edc <OSFlagDel+0xb8>
        *perr = OS_ERR_EVENT_TYPE;
    2ec4:	e0fffd17 	ldw	r3,-12(fp)
    2ec8:	00800044 	movi	r2,1
    2ecc:	18800005 	stb	r2,0(r3)
        return (pgrp);
    2ed0:	e0fffb17 	ldw	r3,-20(fp)
    2ed4:	e0ffff15 	stw	r3,-4(fp)
    2ed8:	00007606 	br	30b4 <OSFlagDel+0x290>
static ALT_INLINE alt_irq_context ALT_ALWAYS_INLINE 
       alt_irq_disable_all (void)
{
  alt_irq_context context;

  NIOS2_READ_STATUS (context);
    2edc:	0005303a 	rdctl	r2,status
    2ee0:	e0bff615 	stw	r2,-40(fp)

  NIOS2_WRITE_STATUS (context & ~NIOS2_STATUS_PIE_MSK);
    2ee4:	e0fff617 	ldw	r3,-40(fp)
    2ee8:	00bfff84 	movi	r2,-2
    2eec:	1884703a 	and	r2,r3,r2
    2ef0:	1001703a 	wrctl	status,r2
  
  return context;
    2ef4:	e0bff617 	ldw	r2,-40(fp)
    }
    OS_ENTER_CRITICAL();
    2ef8:	e0bff715 	stw	r2,-36(fp)
    if (pgrp->OSFlagWaitList != (void *)0) {               /* See if any tasks waiting on event flags  */
    2efc:	e0bffb17 	ldw	r2,-20(fp)
    2f00:	10800117 	ldw	r2,4(r2)
    2f04:	1005003a 	cmpeq	r2,r2,zero
    2f08:	1000031e 	bne	r2,zero,2f18 <OSFlagDel+0xf4>
        tasks_waiting = OS_TRUE;                           /* Yes                                      */
    2f0c:	00800044 	movi	r2,1
    2f10:	e0bffa05 	stb	r2,-24(fp)
    2f14:	00000106 	br	2f1c <OSFlagDel+0xf8>
    } else {
        tasks_waiting = OS_FALSE;                          /* No                                       */
    2f18:	e03ffa05 	stb	zero,-24(fp)
    }
    switch (opt) {
    2f1c:	e0bffc03 	ldbu	r2,-16(fp)
    2f20:	e0bffe15 	stw	r2,-8(fp)
    2f24:	e0fffe17 	ldw	r3,-8(fp)
    2f28:	1805003a 	cmpeq	r2,r3,zero
    2f2c:	1000041e 	bne	r2,zero,2f40 <OSFlagDel+0x11c>
    2f30:	e0fffe17 	ldw	r3,-8(fp)
    2f34:	18800060 	cmpeqi	r2,r3,1
    2f38:	1000281e 	bne	r2,zero,2fdc <OSFlagDel+0x1b8>
    2f3c:	00005206 	br	3088 <OSFlagDel+0x264>
        case OS_DEL_NO_PEND:                               /* Delete group if no task waiting          */
             if (tasks_waiting == OS_FALSE) {
    2f40:	e0bffa03 	ldbu	r2,-24(fp)
    2f44:	1004c03a 	cmpne	r2,r2,zero
    2f48:	10001a1e 	bne	r2,zero,2fb4 <OSFlagDel+0x190>
#if OS_FLAG_NAME_SIZE > 1
                 pgrp->OSFlagName[0]  = '?';               /* Unknown name                             */
    2f4c:	e0fffb17 	ldw	r3,-20(fp)
    2f50:	00800fc4 	movi	r2,63
    2f54:	18800285 	stb	r2,10(r3)
                 pgrp->OSFlagName[1]  = OS_ASCII_NUL;
    2f58:	e0bffb17 	ldw	r2,-20(fp)
    2f5c:	100002c5 	stb	zero,11(r2)
#endif
                 pgrp->OSFlagType     = OS_EVENT_TYPE_UNUSED;
    2f60:	e0bffb17 	ldw	r2,-20(fp)
    2f64:	10000005 	stb	zero,0(r2)
                 pgrp->OSFlagWaitList = (void *)OSFlagFreeList; /* Return group to free list           */
    2f68:	00800074 	movhi	r2,1
    2f6c:	1082f304 	addi	r2,r2,3020
    2f70:	10c00017 	ldw	r3,0(r2)
    2f74:	e0bffb17 	ldw	r2,-20(fp)
    2f78:	10c00115 	stw	r3,4(r2)
                 pgrp->OSFlagFlags    = (OS_FLAGS)0;
    2f7c:	e0bffb17 	ldw	r2,-20(fp)
    2f80:	1000020d 	sth	zero,8(r2)
                 OSFlagFreeList       = pgrp;
    2f84:	00c00074 	movhi	r3,1
    2f88:	18c2f304 	addi	r3,r3,3020
    2f8c:	e0bffb17 	ldw	r2,-20(fp)
    2f90:	18800015 	stw	r2,0(r3)
    2f94:	e0bff717 	ldw	r2,-36(fp)
    2f98:	e0bff515 	stw	r2,-44(fp)
  status &= ~NIOS2_STATUS_PIE_MSK;
  status |= (context & NIOS2_STATUS_PIE_MSK);
  
  NIOS2_WRITE_STATUS (status);
#else
  NIOS2_WRITE_STATUS (context);
    2f9c:	e0bff517 	ldw	r2,-44(fp)
    2fa0:	1001703a 	wrctl	status,r2
                 OS_EXIT_CRITICAL();
                 *perr                = OS_ERR_NONE;
    2fa4:	e0bffd17 	ldw	r2,-12(fp)
    2fa8:	10000005 	stb	zero,0(r2)
                 pgrp_return          = (OS_FLAG_GRP *)0;  /* Event Flag Group has been deleted        */
    2fac:	e03ff815 	stw	zero,-32(fp)
    2fb0:	00003e06 	br	30ac <OSFlagDel+0x288>
    2fb4:	e0bff717 	ldw	r2,-36(fp)
    2fb8:	e0bff415 	stw	r2,-48(fp)
    2fbc:	e0bff417 	ldw	r2,-48(fp)
    2fc0:	1001703a 	wrctl	status,r2
             } else {
                 OS_EXIT_CRITICAL();
                 *perr                = OS_ERR_TASK_WAITING;
    2fc4:	e0fffd17 	ldw	r3,-12(fp)
    2fc8:	00801244 	movi	r2,73
    2fcc:	18800005 	stb	r2,0(r3)
                 pgrp_return          = pgrp;
    2fd0:	e0bffb17 	ldw	r2,-20(fp)
    2fd4:	e0bff815 	stw	r2,-32(fp)
             }
             break;
    2fd8:	00003406 	br	30ac <OSFlagDel+0x288>

        case OS_DEL_ALWAYS:                                /* Always delete the event flag group       */
             pnode = (OS_FLAG_NODE *)pgrp->OSFlagWaitList;
    2fdc:	e0bffb17 	ldw	r2,-20(fp)
    2fe0:	10800117 	ldw	r2,4(r2)
    2fe4:	e0bff915 	stw	r2,-28(fp)
             while (pnode != (OS_FLAG_NODE *)0) {          /* Ready ALL tasks waiting for flags        */
    2fe8:	00000606 	br	3004 <OSFlagDel+0x1e0>
                 (void)OS_FlagTaskRdy(pnode, (OS_FLAGS)0);
    2fec:	e13ff917 	ldw	r4,-28(fp)
    2ff0:	000b883a 	mov	r5,zero
    2ff4:	00041340 	call	4134 <OS_FlagTaskRdy>
                 pnode = (OS_FLAG_NODE *)pnode->OSFlagNodeNext;
    2ff8:	e0bff917 	ldw	r2,-28(fp)
    2ffc:	10800017 	ldw	r2,0(r2)
    3000:	e0bff915 	stw	r2,-28(fp)
             }
             break;

        case OS_DEL_ALWAYS:                                /* Always delete the event flag group       */
             pnode = (OS_FLAG_NODE *)pgrp->OSFlagWaitList;
             while (pnode != (OS_FLAG_NODE *)0) {          /* Ready ALL tasks waiting for flags        */
    3004:	e0bff917 	ldw	r2,-28(fp)
    3008:	1004c03a 	cmpne	r2,r2,zero
    300c:	103ff71e 	bne	r2,zero,2fec <OSFlagDel+0x1c8>
                 (void)OS_FlagTaskRdy(pnode, (OS_FLAGS)0);
                 pnode = (OS_FLAG_NODE *)pnode->OSFlagNodeNext;
             }
#if OS_FLAG_NAME_SIZE > 1
             pgrp->OSFlagName[0]  = '?';                   /* Unknown name                             */
    3010:	e0fffb17 	ldw	r3,-20(fp)
    3014:	00800fc4 	movi	r2,63
    3018:	18800285 	stb	r2,10(r3)
             pgrp->OSFlagName[1]  = OS_ASCII_NUL;
    301c:	e0bffb17 	ldw	r2,-20(fp)
    3020:	100002c5 	stb	zero,11(r2)
#endif
             pgrp->OSFlagType     = OS_EVENT_TYPE_UNUSED;
    3024:	e0bffb17 	ldw	r2,-20(fp)
    3028:	10000005 	stb	zero,0(r2)
             pgrp->OSFlagWaitList = (void *)OSFlagFreeList;/* Return group to free list                */
    302c:	00800074 	movhi	r2,1
    3030:	1082f304 	addi	r2,r2,3020
    3034:	10c00017 	ldw	r3,0(r2)
    3038:	e0bffb17 	ldw	r2,-20(fp)
    303c:	10c00115 	stw	r3,4(r2)
             pgrp->OSFlagFlags    = (OS_FLAGS)0;
    3040:	e0bffb17 	ldw	r2,-20(fp)
    3044:	1000020d 	sth	zero,8(r2)
             OSFlagFreeList       = pgrp;
    3048:	00c00074 	movhi	r3,1
    304c:	18c2f304 	addi	r3,r3,3020
    3050:	e0bffb17 	ldw	r2,-20(fp)
    3054:	18800015 	stw	r2,0(r3)
    3058:	e0bff717 	ldw	r2,-36(fp)
    305c:	e0bff315 	stw	r2,-52(fp)
    3060:	e0bff317 	ldw	r2,-52(fp)
    3064:	1001703a 	wrctl	status,r2
             OS_EXIT_CRITICAL();
             if (tasks_waiting == OS_TRUE) {               /* Reschedule only if task(s) were waiting  */
    3068:	e0bffa03 	ldbu	r2,-24(fp)
    306c:	10800058 	cmpnei	r2,r2,1
    3070:	1000011e 	bne	r2,zero,3078 <OSFlagDel+0x254>
                 OS_Sched();                               /* Find highest priority task ready to run  */
    3074:	00021400 	call	2140 <OS_Sched>
             }
             *perr = OS_ERR_NONE;
    3078:	e0bffd17 	ldw	r2,-12(fp)
    307c:	10000005 	stb	zero,0(r2)
             pgrp_return          = (OS_FLAG_GRP *)0;      /* Event Flag Group has been deleted        */
    3080:	e03ff815 	stw	zero,-32(fp)
             break;
    3084:	00000906 	br	30ac <OSFlagDel+0x288>
    3088:	e0bff717 	ldw	r2,-36(fp)
    308c:	e0bff215 	stw	r2,-56(fp)
    3090:	e0bff217 	ldw	r2,-56(fp)
    3094:	1001703a 	wrctl	status,r2

        default:
             OS_EXIT_CRITICAL();
             *perr                = OS_ERR_INVALID_OPT;
    3098:	e0fffd17 	ldw	r3,-12(fp)
    309c:	008001c4 	movi	r2,7
    30a0:	18800005 	stb	r2,0(r3)
             pgrp_return          = pgrp;
    30a4:	e0bffb17 	ldw	r2,-20(fp)
    30a8:	e0bff815 	stw	r2,-32(fp)
             break;
    }
    return (pgrp_return);
    30ac:	e0bff817 	ldw	r2,-32(fp)
    30b0:	e0bfff15 	stw	r2,-4(fp)
    30b4:	e0bfff17 	ldw	r2,-4(fp)
}
    30b8:	e037883a 	mov	sp,fp
    30bc:	dfc00117 	ldw	ra,4(sp)
    30c0:	df000017 	ldw	fp,0(sp)
    30c4:	dec00204 	addi	sp,sp,8
    30c8:	f800283a 	ret

000030cc <OSFlagNameGet>:
*********************************************************************************************************
*/

#if OS_FLAG_NAME_SIZE > 1
INT8U  OSFlagNameGet (OS_FLAG_GRP *pgrp, INT8U *pname, INT8U *perr)
{
    30cc:	defff504 	addi	sp,sp,-44
    30d0:	dfc00a15 	stw	ra,40(sp)
    30d4:	df000915 	stw	fp,36(sp)
    30d8:	df000904 	addi	fp,sp,36
    30dc:	e13ffc15 	stw	r4,-16(fp)
    30e0:	e17ffd15 	stw	r5,-12(fp)
    30e4:	e1bffe15 	stw	r6,-8(fp)
    INT8U      len;
#if OS_CRITICAL_METHOD == 3                      /* Allocate storage for CPU status register           */
    OS_CPU_SR  cpu_sr = 0;
    30e8:	e03ffa15 	stw	zero,-24(fp)
#endif



#if OS_ARG_CHK_EN > 0
    if (perr == (INT8U *)0) {                    /* Validate 'perr'                                    */
    30ec:	e0bffe17 	ldw	r2,-8(fp)
    30f0:	1004c03a 	cmpne	r2,r2,zero
    30f4:	1000021e 	bne	r2,zero,3100 <OSFlagNameGet+0x34>
        return (0);
    30f8:	e03fff15 	stw	zero,-4(fp)
    30fc:	00003e06 	br	31f8 <OSFlagNameGet+0x12c>
    }
    if (pgrp == (OS_FLAG_GRP *)0) {              /* Is 'pgrp' a NULL pointer?                          */
    3100:	e0bffc17 	ldw	r2,-16(fp)
    3104:	1004c03a 	cmpne	r2,r2,zero
    3108:	1000051e 	bne	r2,zero,3120 <OSFlagNameGet+0x54>
        *perr = OS_ERR_FLAG_INVALID_PGRP;
    310c:	e0fffe17 	ldw	r3,-8(fp)
    3110:	00801b84 	movi	r2,110
    3114:	18800005 	stb	r2,0(r3)
        return (0);
    3118:	e03fff15 	stw	zero,-4(fp)
    311c:	00003606 	br	31f8 <OSFlagNameGet+0x12c>
    }
    if (pname == (INT8U *)0) {                   /* Is 'pname' a NULL pointer?                         */
    3120:	e0bffd17 	ldw	r2,-12(fp)
    3124:	1004c03a 	cmpne	r2,r2,zero
    3128:	1000051e 	bne	r2,zero,3140 <OSFlagNameGet+0x74>
        *perr = OS_ERR_PNAME_NULL;
    312c:	e0fffe17 	ldw	r3,-8(fp)
    3130:	00800304 	movi	r2,12
    3134:	18800005 	stb	r2,0(r3)
        return (0);
    3138:	e03fff15 	stw	zero,-4(fp)
    313c:	00002e06 	br	31f8 <OSFlagNameGet+0x12c>
    }
#endif
    if (OSIntNesting > 0) {                      /* See if trying to call from an ISR                  */
    3140:	00800074 	movhi	r2,1
    3144:	1082f004 	addi	r2,r2,3008
    3148:	10800003 	ldbu	r2,0(r2)
    314c:	10803fcc 	andi	r2,r2,255
    3150:	1005003a 	cmpeq	r2,r2,zero
    3154:	1000051e 	bne	r2,zero,316c <OSFlagNameGet+0xa0>
        *perr = OS_ERR_NAME_GET_ISR;
    3158:	e0fffe17 	ldw	r3,-8(fp)
    315c:	00800444 	movi	r2,17
    3160:	18800005 	stb	r2,0(r3)
        return (0);
    3164:	e03fff15 	stw	zero,-4(fp)
    3168:	00002306 	br	31f8 <OSFlagNameGet+0x12c>
static ALT_INLINE alt_irq_context ALT_ALWAYS_INLINE 
       alt_irq_disable_all (void)
{
  alt_irq_context context;

  NIOS2_READ_STATUS (context);
    316c:	0005303a 	rdctl	r2,status
    3170:	e0bff915 	stw	r2,-28(fp)

  NIOS2_WRITE_STATUS (context & ~NIOS2_STATUS_PIE_MSK);
    3174:	e0fff917 	ldw	r3,-28(fp)
    3178:	00bfff84 	movi	r2,-2
    317c:	1884703a 	and	r2,r3,r2
    3180:	1001703a 	wrctl	status,r2
  
  return context;
    3184:	e0bff917 	ldw	r2,-28(fp)
    }
    OS_ENTER_CRITICAL();
    3188:	e0bffa15 	stw	r2,-24(fp)
    if (pgrp->OSFlagType != OS_EVENT_TYPE_FLAG) {
    318c:	e0bffc17 	ldw	r2,-16(fp)
    3190:	10800003 	ldbu	r2,0(r2)
    3194:	10803fcc 	andi	r2,r2,255
    3198:	10800160 	cmpeqi	r2,r2,5
    319c:	1000091e 	bne	r2,zero,31c4 <OSFlagNameGet+0xf8>
    31a0:	e0bffa17 	ldw	r2,-24(fp)
    31a4:	e0bff815 	stw	r2,-32(fp)
  status &= ~NIOS2_STATUS_PIE_MSK;
  status |= (context & NIOS2_STATUS_PIE_MSK);
  
  NIOS2_WRITE_STATUS (status);
#else
  NIOS2_WRITE_STATUS (context);
    31a8:	e0bff817 	ldw	r2,-32(fp)
    31ac:	1001703a 	wrctl	status,r2
        OS_EXIT_CRITICAL();
        *perr = OS_ERR_EVENT_TYPE;
    31b0:	e0fffe17 	ldw	r3,-8(fp)
    31b4:	00800044 	movi	r2,1
    31b8:	18800005 	stb	r2,0(r3)
        return (0);
    31bc:	e03fff15 	stw	zero,-4(fp)
    31c0:	00000d06 	br	31f8 <OSFlagNameGet+0x12c>
    }
    len   = OS_StrCopy(pname, pgrp->OSFlagName); /* Copy name from OS_FLAG_GRP                         */
    31c4:	e0bffc17 	ldw	r2,-16(fp)
    31c8:	11400284 	addi	r5,r2,10
    31cc:	e13ffd17 	ldw	r4,-12(fp)
    31d0:	00022840 	call	2284 <OS_StrCopy>
    31d4:	e0bffb05 	stb	r2,-20(fp)
    31d8:	e0bffa17 	ldw	r2,-24(fp)
    31dc:	e0bff715 	stw	r2,-36(fp)
    31e0:	e0bff717 	ldw	r2,-36(fp)
    31e4:	1001703a 	wrctl	status,r2
    OS_EXIT_CRITICAL();
    *perr = OS_ERR_NONE;
    31e8:	e0bffe17 	ldw	r2,-8(fp)
    31ec:	10000005 	stb	zero,0(r2)
    return (len);
    31f0:	e0bffb03 	ldbu	r2,-20(fp)
    31f4:	e0bfff15 	stw	r2,-4(fp)
    31f8:	e0bfff17 	ldw	r2,-4(fp)
}
    31fc:	e037883a 	mov	sp,fp
    3200:	dfc00117 	ldw	ra,4(sp)
    3204:	df000017 	ldw	fp,0(sp)
    3208:	dec00204 	addi	sp,sp,8
    320c:	f800283a 	ret

00003210 <OSFlagNameSet>:
*********************************************************************************************************
*/

#if OS_FLAG_NAME_SIZE > 1
void  OSFlagNameSet (OS_FLAG_GRP *pgrp, INT8U *pname, INT8U *perr)
{
    3210:	defff504 	addi	sp,sp,-44
    3214:	dfc00a15 	stw	ra,40(sp)
    3218:	df000915 	stw	fp,36(sp)
    321c:	df000904 	addi	fp,sp,36
    3220:	e13ffd15 	stw	r4,-12(fp)
    3224:	e17ffe15 	stw	r5,-8(fp)
    3228:	e1bfff15 	stw	r6,-4(fp)
    INT8U      len;
#if OS_CRITICAL_METHOD == 3                      /* Allocate storage for CPU status register           */
    OS_CPU_SR  cpu_sr = 0;
    322c:	e03ffb15 	stw	zero,-20(fp)
#endif



#if OS_ARG_CHK_EN > 0
    if (perr == (INT8U *)0) {                    /* Validate 'perr'                                    */
    3230:	e0bfff17 	ldw	r2,-4(fp)
    3234:	1005003a 	cmpeq	r2,r2,zero
    3238:	1000451e 	bne	r2,zero,3350 <OSFlagNameSet+0x140>
        return;
    }
    if (pgrp == (OS_FLAG_GRP *)0) {              /* Is 'pgrp' a NULL pointer?                          */
    323c:	e0bffd17 	ldw	r2,-12(fp)
    3240:	1004c03a 	cmpne	r2,r2,zero
    3244:	1000041e 	bne	r2,zero,3258 <OSFlagNameSet+0x48>
        *perr = OS_ERR_FLAG_INVALID_PGRP;
    3248:	e0ffff17 	ldw	r3,-4(fp)
    324c:	00801b84 	movi	r2,110
    3250:	18800005 	stb	r2,0(r3)
        return;
    3254:	00003e06 	br	3350 <OSFlagNameSet+0x140>
    }
    if (pname == (INT8U *)0) {                   /* Is 'pname' a NULL pointer?                         */
    3258:	e0bffe17 	ldw	r2,-8(fp)
    325c:	1004c03a 	cmpne	r2,r2,zero
    3260:	1000041e 	bne	r2,zero,3274 <OSFlagNameSet+0x64>
        *perr = OS_ERR_PNAME_NULL;
    3264:	e0ffff17 	ldw	r3,-4(fp)
    3268:	00800304 	movi	r2,12
    326c:	18800005 	stb	r2,0(r3)
        return;
    3270:	00003706 	br	3350 <OSFlagNameSet+0x140>
    }
#endif
    if (OSIntNesting > 0) {                      /* See if trying to call from an ISR                  */
    3274:	00800074 	movhi	r2,1
    3278:	1082f004 	addi	r2,r2,3008
    327c:	10800003 	ldbu	r2,0(r2)
    3280:	10803fcc 	andi	r2,r2,255
    3284:	1005003a 	cmpeq	r2,r2,zero
    3288:	1000041e 	bne	r2,zero,329c <OSFlagNameSet+0x8c>
        *perr = OS_ERR_NAME_SET_ISR;
    328c:	e0ffff17 	ldw	r3,-4(fp)
    3290:	00800484 	movi	r2,18
    3294:	18800005 	stb	r2,0(r3)
        return;
    3298:	00002d06 	br	3350 <OSFlagNameSet+0x140>
static ALT_INLINE alt_irq_context ALT_ALWAYS_INLINE 
       alt_irq_disable_all (void)
{
  alt_irq_context context;

  NIOS2_READ_STATUS (context);
    329c:	0005303a 	rdctl	r2,status
    32a0:	e0bffa15 	stw	r2,-24(fp)

  NIOS2_WRITE_STATUS (context & ~NIOS2_STATUS_PIE_MSK);
    32a4:	e0fffa17 	ldw	r3,-24(fp)
    32a8:	00bfff84 	movi	r2,-2
    32ac:	1884703a 	and	r2,r3,r2
    32b0:	1001703a 	wrctl	status,r2
  
  return context;
    32b4:	e0bffa17 	ldw	r2,-24(fp)
    }
    OS_ENTER_CRITICAL();
    32b8:	e0bffb15 	stw	r2,-20(fp)
    if (pgrp->OSFlagType != OS_EVENT_TYPE_FLAG) {
    32bc:	e0bffd17 	ldw	r2,-12(fp)
    32c0:	10800003 	ldbu	r2,0(r2)
    32c4:	10803fcc 	andi	r2,r2,255
    32c8:	10800160 	cmpeqi	r2,r2,5
    32cc:	1000081e 	bne	r2,zero,32f0 <OSFlagNameSet+0xe0>
    32d0:	e0bffb17 	ldw	r2,-20(fp)
    32d4:	e0bff915 	stw	r2,-28(fp)
  status &= ~NIOS2_STATUS_PIE_MSK;
  status |= (context & NIOS2_STATUS_PIE_MSK);
  
  NIOS2_WRITE_STATUS (status);
#else
  NIOS2_WRITE_STATUS (context);
    32d8:	e0bff917 	ldw	r2,-28(fp)
    32dc:	1001703a 	wrctl	status,r2
        OS_EXIT_CRITICAL();
        *perr = OS_ERR_EVENT_TYPE;
    32e0:	e0ffff17 	ldw	r3,-4(fp)
    32e4:	00800044 	movi	r2,1
    32e8:	18800005 	stb	r2,0(r3)
        return;
    32ec:	00001806 	br	3350 <OSFlagNameSet+0x140>
    }
    len = OS_StrLen(pname);                      /* Can we fit the string in the storage area?         */
    32f0:	e13ffe17 	ldw	r4,-8(fp)
    32f4:	00023040 	call	2304 <OS_StrLen>
    32f8:	e0bffc05 	stb	r2,-16(fp)
    if (len > (OS_FLAG_NAME_SIZE - 1)) {         /* No                                                 */
    32fc:	e0bffc03 	ldbu	r2,-16(fp)
    3300:	10800830 	cmpltui	r2,r2,32
    3304:	1000081e 	bne	r2,zero,3328 <OSFlagNameSet+0x118>
    3308:	e0bffb17 	ldw	r2,-20(fp)
    330c:	e0bff815 	stw	r2,-32(fp)
    3310:	e0bff817 	ldw	r2,-32(fp)
    3314:	1001703a 	wrctl	status,r2
        OS_EXIT_CRITICAL();
        *perr = OS_ERR_FLAG_NAME_TOO_LONG;
    3318:	e0ffff17 	ldw	r3,-4(fp)
    331c:	00801cc4 	movi	r2,115
    3320:	18800005 	stb	r2,0(r3)
        return;
    3324:	00000a06 	br	3350 <OSFlagNameSet+0x140>
    }
    (void)OS_StrCopy(pgrp->OSFlagName, pname);   /* Yes, copy name from OS_FLAG_GRP                    */
    3328:	e0bffd17 	ldw	r2,-12(fp)
    332c:	11000284 	addi	r4,r2,10
    3330:	e17ffe17 	ldw	r5,-8(fp)
    3334:	00022840 	call	2284 <OS_StrCopy>
    3338:	e0bffb17 	ldw	r2,-20(fp)
    333c:	e0bff715 	stw	r2,-36(fp)
    3340:	e0bff717 	ldw	r2,-36(fp)
    3344:	1001703a 	wrctl	status,r2
    OS_EXIT_CRITICAL();
    *perr = OS_ERR_NONE;
    3348:	e0bfff17 	ldw	r2,-4(fp)
    334c:	10000005 	stb	zero,0(r2)
    return;
}
    3350:	e037883a 	mov	sp,fp
    3354:	dfc00117 	ldw	ra,4(sp)
    3358:	df000017 	ldw	fp,0(sp)
    335c:	dec00204 	addi	sp,sp,8
    3360:	f800283a 	ret

00003364 <OSFlagPend>:
*                 event flags.
*********************************************************************************************************
*/

OS_FLAGS  OSFlagPend (OS_FLAG_GRP *pgrp, OS_FLAGS flags, INT8U wait_type, INT16U timeout, INT8U *perr)
{
    3364:	deffe004 	addi	sp,sp,-128
    3368:	dfc01f15 	stw	ra,124(sp)
    336c:	df001e15 	stw	fp,120(sp)
    3370:	df001e04 	addi	fp,sp,120
    3374:	e13ff915 	stw	r4,-28(fp)
    3378:	e17ffa0d 	sth	r5,-24(fp)
    337c:	e1bffb05 	stb	r6,-20(fp)
    3380:	e1fffc0d 	sth	r7,-16(fp)
    OS_FLAGS      flags_rdy;
    INT8U         result;
    INT8U         pend_stat;
    BOOLEAN       consume;
#if OS_CRITICAL_METHOD == 3                                /* Allocate storage for CPU status register */
    OS_CPU_SR     cpu_sr = 0;
    3384:	e03ff115 	stw	zero,-60(fp)
#endif



#if OS_ARG_CHK_EN > 0
    if (perr == (INT8U *)0) {                              /* Validate 'perr'                          */
    3388:	e0800217 	ldw	r2,8(fp)
    338c:	1004c03a 	cmpne	r2,r2,zero
    3390:	1000021e 	bne	r2,zero,339c <OSFlagPend+0x38>
        return ((OS_FLAGS)0);
    3394:	e03fff15 	stw	zero,-4(fp)
    3398:	00017d06 	br	3990 <OSFlagPend+0x62c>
    }
    if (pgrp == (OS_FLAG_GRP *)0) {                        /* Validate 'pgrp'                          */
    339c:	e0bff917 	ldw	r2,-28(fp)
    33a0:	1004c03a 	cmpne	r2,r2,zero
    33a4:	1000051e 	bne	r2,zero,33bc <OSFlagPend+0x58>
        *perr = OS_ERR_FLAG_INVALID_PGRP;
    33a8:	e0c00217 	ldw	r3,8(fp)
    33ac:	00801b84 	movi	r2,110
    33b0:	18800005 	stb	r2,0(r3)
        return ((OS_FLAGS)0);
    33b4:	e03fff15 	stw	zero,-4(fp)
    33b8:	00017506 	br	3990 <OSFlagPend+0x62c>
    }
#endif
    if (OSIntNesting > 0) {                                /* See if called from ISR ...               */
    33bc:	00800074 	movhi	r2,1
    33c0:	1082f004 	addi	r2,r2,3008
    33c4:	10800003 	ldbu	r2,0(r2)
    33c8:	10803fcc 	andi	r2,r2,255
    33cc:	1005003a 	cmpeq	r2,r2,zero
    33d0:	1000051e 	bne	r2,zero,33e8 <OSFlagPend+0x84>
        *perr = OS_ERR_PEND_ISR;                           /* ... can't PEND from an ISR               */
    33d4:	e0c00217 	ldw	r3,8(fp)
    33d8:	00800084 	movi	r2,2
    33dc:	18800005 	stb	r2,0(r3)
        return ((OS_FLAGS)0);
    33e0:	e03fff15 	stw	zero,-4(fp)
    33e4:	00016a06 	br	3990 <OSFlagPend+0x62c>
    }
    if (OSLockNesting > 0) {                               /* See if called with scheduler locked ...  */
    33e8:	00800074 	movhi	r2,1
    33ec:	1082e204 	addi	r2,r2,2952
    33f0:	10800003 	ldbu	r2,0(r2)
    33f4:	10803fcc 	andi	r2,r2,255
    33f8:	1005003a 	cmpeq	r2,r2,zero
    33fc:	1000051e 	bne	r2,zero,3414 <OSFlagPend+0xb0>
        *perr = OS_ERR_PEND_LOCKED;                        /* ... can't PEND when locked               */
    3400:	e0c00217 	ldw	r3,8(fp)
    3404:	00800344 	movi	r2,13
    3408:	18800005 	stb	r2,0(r3)
        return ((OS_FLAGS)0);
    340c:	e03fff15 	stw	zero,-4(fp)
    3410:	00015f06 	br	3990 <OSFlagPend+0x62c>
    }
    if (pgrp->OSFlagType != OS_EVENT_TYPE_FLAG) {          /* Validate event block type                */
    3414:	e0bff917 	ldw	r2,-28(fp)
    3418:	10800003 	ldbu	r2,0(r2)
    341c:	10803fcc 	andi	r2,r2,255
    3420:	10800160 	cmpeqi	r2,r2,5
    3424:	1000051e 	bne	r2,zero,343c <OSFlagPend+0xd8>
        *perr = OS_ERR_EVENT_TYPE;
    3428:	e0c00217 	ldw	r3,8(fp)
    342c:	00800044 	movi	r2,1
    3430:	18800005 	stb	r2,0(r3)
        return ((OS_FLAGS)0);
    3434:	e03fff15 	stw	zero,-4(fp)
    3438:	00015506 	br	3990 <OSFlagPend+0x62c>
    }
    result = (INT8U)(wait_type & OS_FLAG_CONSUME);
    343c:	e0fffb03 	ldbu	r3,-20(fp)
    3440:	00bfe004 	movi	r2,-128
    3444:	1884703a 	and	r2,r3,r2
    3448:	e0bff285 	stb	r2,-54(fp)
    if (result != (INT8U)0) {                             /* See if we need to consume the flags      */
    344c:	e0bff283 	ldbu	r2,-54(fp)
    3450:	1005003a 	cmpeq	r2,r2,zero
    3454:	1000071e 	bne	r2,zero,3474 <OSFlagPend+0x110>
        wait_type &= ~(INT8U)OS_FLAG_CONSUME;
    3458:	00c01fc4 	movi	r3,127
    345c:	e0bffb03 	ldbu	r2,-20(fp)
    3460:	10c4703a 	and	r2,r2,r3
    3464:	e0bffb05 	stb	r2,-20(fp)
        consume    = OS_TRUE;
    3468:	00800044 	movi	r2,1
    346c:	e0bff205 	stb	r2,-56(fp)
    3470:	00000106 	br	3478 <OSFlagPend+0x114>
    } else {
        consume    = OS_FALSE;
    3474:	e03ff205 	stb	zero,-56(fp)
static ALT_INLINE alt_irq_context ALT_ALWAYS_INLINE 
       alt_irq_disable_all (void)
{
  alt_irq_context context;

  NIOS2_READ_STATUS (context);
    3478:	0005303a 	rdctl	r2,status
    347c:	e0bff015 	stw	r2,-64(fp)

  NIOS2_WRITE_STATUS (context & ~NIOS2_STATUS_PIE_MSK);
    3480:	e0fff017 	ldw	r3,-64(fp)
    3484:	00bfff84 	movi	r2,-2
    3488:	1884703a 	and	r2,r3,r2
    348c:	1001703a 	wrctl	status,r2
  
  return context;
    3490:	e0bff017 	ldw	r2,-64(fp)
    }
/*$PAGE*/
    OS_ENTER_CRITICAL();
    3494:	e0bff115 	stw	r2,-60(fp)
    switch (wait_type) {
    3498:	e0bffb03 	ldbu	r2,-20(fp)
    349c:	e0bffe15 	stw	r2,-8(fp)
    34a0:	e0fffe17 	ldw	r3,-8(fp)
    34a4:	18800060 	cmpeqi	r2,r3,1
    34a8:	1000981e 	bne	r2,zero,370c <OSFlagPend+0x3a8>
    34ac:	e0fffe17 	ldw	r3,-8(fp)
    34b0:	18800088 	cmpgei	r2,r3,2
    34b4:	1000041e 	bne	r2,zero,34c8 <OSFlagPend+0x164>
    34b8:	e0fffe17 	ldw	r3,-8(fp)
    34bc:	1805003a 	cmpeq	r2,r3,zero
    34c0:	1000641e 	bne	r2,zero,3654 <OSFlagPend+0x2f0>
    34c4:	0000bf06 	br	37c4 <OSFlagPend+0x460>
    34c8:	e0fffe17 	ldw	r3,-8(fp)
    34cc:	188000a0 	cmpeqi	r2,r3,2
    34d0:	1000041e 	bne	r2,zero,34e4 <OSFlagPend+0x180>
    34d4:	e0fffe17 	ldw	r3,-8(fp)
    34d8:	188000e0 	cmpeqi	r2,r3,3
    34dc:	10002f1e 	bne	r2,zero,359c <OSFlagPend+0x238>
    34e0:	0000b806 	br	37c4 <OSFlagPend+0x460>
        case OS_FLAG_WAIT_SET_ALL:                         /* See if all required flags are set        */
             flags_rdy = (OS_FLAGS)(pgrp->OSFlagFlags & flags);   /* Extract only the bits we want     */
    34e4:	e0bff917 	ldw	r2,-28(fp)
    34e8:	10c0020b 	ldhu	r3,8(r2)
    34ec:	e0bffa0b 	ldhu	r2,-24(fp)
    34f0:	1884703a 	and	r2,r3,r2
    34f4:	e0bff30d 	sth	r2,-52(fp)
             if (flags_rdy == flags) {                     /* Must match ALL the bits that we want     */
    34f8:	e0fff30b 	ldhu	r3,-52(fp)
    34fc:	e0bffa0b 	ldhu	r2,-24(fp)
    3500:	18801a1e 	bne	r3,r2,356c <OSFlagPend+0x208>
                 if (consume == OS_TRUE) {                 /* See if we need to consume the flags      */
    3504:	e0bff203 	ldbu	r2,-56(fp)
    3508:	10800058 	cmpnei	r2,r2,1
    350c:	1000091e 	bne	r2,zero,3534 <OSFlagPend+0x1d0>
                     pgrp->OSFlagFlags &= ~flags_rdy;      /* Clear ONLY the flags that we wanted      */
    3510:	e0bff917 	ldw	r2,-28(fp)
    3514:	1080020b 	ldhu	r2,8(r2)
    3518:	1007883a 	mov	r3,r2
    351c:	e0bff30b 	ldhu	r2,-52(fp)
    3520:	0084303a 	nor	r2,zero,r2
    3524:	1884703a 	and	r2,r3,r2
    3528:	1007883a 	mov	r3,r2
    352c:	e0bff917 	ldw	r2,-28(fp)
    3530:	10c0020d 	sth	r3,8(r2)
                 }
                 OSTCBCur->OSTCBFlagsRdy = flags_rdy;      /* Save flags that were ready               */
    3534:	00800074 	movhi	r2,1
    3538:	1082f104 	addi	r2,r2,3012
    353c:	10c00017 	ldw	r3,0(r2)
    3540:	e0bff30b 	ldhu	r2,-52(fp)
    3544:	18800b0d 	sth	r2,44(r3)
    3548:	e0bff117 	ldw	r2,-60(fp)
    354c:	e0bfef15 	stw	r2,-68(fp)
  status &= ~NIOS2_STATUS_PIE_MSK;
  status |= (context & NIOS2_STATUS_PIE_MSK);
  
  NIOS2_WRITE_STATUS (status);
#else
  NIOS2_WRITE_STATUS (context);
    3550:	e0bfef17 	ldw	r2,-68(fp)
    3554:	1001703a 	wrctl	status,r2
                 OS_EXIT_CRITICAL();                       /* Yes, condition met, return to caller     */
                 *perr                   = OS_ERR_NONE;
    3558:	e0800217 	ldw	r2,8(fp)
    355c:	10000005 	stb	zero,0(r2)
                 return (flags_rdy);
    3560:	e0bff30b 	ldhu	r2,-52(fp)
    3564:	e0bfff15 	stw	r2,-4(fp)
    3568:	00010906 	br	3990 <OSFlagPend+0x62c>
             } else {                                      /* Block task until events occur or timeout */
                 OS_FlagBlock(pgrp, &node, flags, wait_type, timeout);
    356c:	e1bffa0b 	ldhu	r6,-24(fp)
    3570:	e1fffb03 	ldbu	r7,-20(fp)
    3574:	e0bffc0b 	ldhu	r2,-16(fp)
    3578:	e17ff404 	addi	r5,fp,-48
    357c:	d8800015 	stw	r2,0(sp)
    3580:	e13ff917 	ldw	r4,-28(fp)
    3584:	0003e8c0 	call	3e8c <OS_FlagBlock>
    3588:	e0bff117 	ldw	r2,-60(fp)
    358c:	e0bfee15 	stw	r2,-72(fp)
    3590:	e0bfee17 	ldw	r2,-72(fp)
    3594:	1001703a 	wrctl	status,r2
                 OS_EXIT_CRITICAL();
             }
             break;
    3598:	00009506 	br	37f0 <OSFlagPend+0x48c>

        case OS_FLAG_WAIT_SET_ANY:
             flags_rdy = (OS_FLAGS)(pgrp->OSFlagFlags & flags);    /* Extract only the bits we want    */
    359c:	e0bff917 	ldw	r2,-28(fp)
    35a0:	10c0020b 	ldhu	r3,8(r2)
    35a4:	e0bffa0b 	ldhu	r2,-24(fp)
    35a8:	1884703a 	and	r2,r3,r2
    35ac:	e0bff30d 	sth	r2,-52(fp)
             if (flags_rdy != (OS_FLAGS)0) {               /* See if any flag set                      */
    35b0:	e0bff30b 	ldhu	r2,-52(fp)
    35b4:	1005003a 	cmpeq	r2,r2,zero
    35b8:	10001a1e 	bne	r2,zero,3624 <OSFlagPend+0x2c0>
                 if (consume == OS_TRUE) {                 /* See if we need to consume the flags      */
    35bc:	e0bff203 	ldbu	r2,-56(fp)
    35c0:	10800058 	cmpnei	r2,r2,1
    35c4:	1000091e 	bne	r2,zero,35ec <OSFlagPend+0x288>
                     pgrp->OSFlagFlags &= ~flags_rdy;      /* Clear ONLY the flags that we got         */
    35c8:	e0bff917 	ldw	r2,-28(fp)
    35cc:	1080020b 	ldhu	r2,8(r2)
    35d0:	1007883a 	mov	r3,r2
    35d4:	e0bff30b 	ldhu	r2,-52(fp)
    35d8:	0084303a 	nor	r2,zero,r2
    35dc:	1884703a 	and	r2,r3,r2
    35e0:	1007883a 	mov	r3,r2
    35e4:	e0bff917 	ldw	r2,-28(fp)
    35e8:	10c0020d 	sth	r3,8(r2)
                 }
                 OSTCBCur->OSTCBFlagsRdy = flags_rdy;      /* Save flags that were ready               */
    35ec:	00800074 	movhi	r2,1
    35f0:	1082f104 	addi	r2,r2,3012
    35f4:	10c00017 	ldw	r3,0(r2)
    35f8:	e0bff30b 	ldhu	r2,-52(fp)
    35fc:	18800b0d 	sth	r2,44(r3)
    3600:	e0bff117 	ldw	r2,-60(fp)
    3604:	e0bfed15 	stw	r2,-76(fp)
    3608:	e0bfed17 	ldw	r2,-76(fp)
    360c:	1001703a 	wrctl	status,r2
                 OS_EXIT_CRITICAL();                       /* Yes, condition met, return to caller     */
                 *perr                   = OS_ERR_NONE;
    3610:	e0800217 	ldw	r2,8(fp)
    3614:	10000005 	stb	zero,0(r2)
                 return (flags_rdy);
    3618:	e0fff30b 	ldhu	r3,-52(fp)
    361c:	e0ffff15 	stw	r3,-4(fp)
    3620:	0000db06 	br	3990 <OSFlagPend+0x62c>
             } else {                                      /* Block task until events occur or timeout */
                 OS_FlagBlock(pgrp, &node, flags, wait_type, timeout);
    3624:	e1bffa0b 	ldhu	r6,-24(fp)
    3628:	e1fffb03 	ldbu	r7,-20(fp)
    362c:	e0bffc0b 	ldhu	r2,-16(fp)
    3630:	e17ff404 	addi	r5,fp,-48
    3634:	d8800015 	stw	r2,0(sp)
    3638:	e13ff917 	ldw	r4,-28(fp)
    363c:	0003e8c0 	call	3e8c <OS_FlagBlock>
    3640:	e0bff117 	ldw	r2,-60(fp)
    3644:	e0bfec15 	stw	r2,-80(fp)
    3648:	e0bfec17 	ldw	r2,-80(fp)
    364c:	1001703a 	wrctl	status,r2
                 OS_EXIT_CRITICAL();
             }
             break;
    3650:	00006706 	br	37f0 <OSFlagPend+0x48c>

#if OS_FLAG_WAIT_CLR_EN > 0
        case OS_FLAG_WAIT_CLR_ALL:                         /* See if all required flags are cleared    */
             flags_rdy = (OS_FLAGS)(~pgrp->OSFlagFlags & flags);  /* Extract only the bits we want     */
    3654:	e0bff917 	ldw	r2,-28(fp)
    3658:	1080020b 	ldhu	r2,8(r2)
    365c:	0084303a 	nor	r2,zero,r2
    3660:	1007883a 	mov	r3,r2
    3664:	e0bffa0b 	ldhu	r2,-24(fp)
    3668:	1884703a 	and	r2,r3,r2
    366c:	e0bff30d 	sth	r2,-52(fp)
             if (flags_rdy == flags) {                     /* Must match ALL the bits that we want     */
    3670:	e0fff30b 	ldhu	r3,-52(fp)
    3674:	e0bffa0b 	ldhu	r2,-24(fp)
    3678:	1880181e 	bne	r3,r2,36dc <OSFlagPend+0x378>
                 if (consume == OS_TRUE) {                 /* See if we need to consume the flags      */
    367c:	e0bff203 	ldbu	r2,-56(fp)
    3680:	10800058 	cmpnei	r2,r2,1
    3684:	1000071e 	bne	r2,zero,36a4 <OSFlagPend+0x340>
                     pgrp->OSFlagFlags |= flags_rdy;       /* Set ONLY the flags that we wanted        */
    3688:	e0bff917 	ldw	r2,-28(fp)
    368c:	10c0020b 	ldhu	r3,8(r2)
    3690:	e0bff30b 	ldhu	r2,-52(fp)
    3694:	1884b03a 	or	r2,r3,r2
    3698:	1007883a 	mov	r3,r2
    369c:	e0bff917 	ldw	r2,-28(fp)
    36a0:	10c0020d 	sth	r3,8(r2)
                 }
                 OSTCBCur->OSTCBFlagsRdy = flags_rdy;      /* Save flags that were ready               */
    36a4:	00800074 	movhi	r2,1
    36a8:	1082f104 	addi	r2,r2,3012
    36ac:	10c00017 	ldw	r3,0(r2)
    36b0:	e0bff30b 	ldhu	r2,-52(fp)
    36b4:	18800b0d 	sth	r2,44(r3)
    36b8:	e0bff117 	ldw	r2,-60(fp)
    36bc:	e0bfeb15 	stw	r2,-84(fp)
    36c0:	e0bfeb17 	ldw	r2,-84(fp)
    36c4:	1001703a 	wrctl	status,r2
                 OS_EXIT_CRITICAL();                       /* Yes, condition met, return to caller     */
                 *perr                   = OS_ERR_NONE;
    36c8:	e0800217 	ldw	r2,8(fp)
    36cc:	10000005 	stb	zero,0(r2)
                 return (flags_rdy);
    36d0:	e0bff30b 	ldhu	r2,-52(fp)
    36d4:	e0bfff15 	stw	r2,-4(fp)
    36d8:	0000ad06 	br	3990 <OSFlagPend+0x62c>
             } else {                                      /* Block task until events occur or timeout */
                 OS_FlagBlock(pgrp, &node, flags, wait_type, timeout);
    36dc:	e1bffa0b 	ldhu	r6,-24(fp)
    36e0:	e1fffb03 	ldbu	r7,-20(fp)
    36e4:	e0bffc0b 	ldhu	r2,-16(fp)
    36e8:	e17ff404 	addi	r5,fp,-48
    36ec:	d8800015 	stw	r2,0(sp)
    36f0:	e13ff917 	ldw	r4,-28(fp)
    36f4:	0003e8c0 	call	3e8c <OS_FlagBlock>
    36f8:	e0bff117 	ldw	r2,-60(fp)
    36fc:	e0bfea15 	stw	r2,-88(fp)
    3700:	e0bfea17 	ldw	r2,-88(fp)
    3704:	1001703a 	wrctl	status,r2
                 OS_EXIT_CRITICAL();
             }
             break;
    3708:	00003906 	br	37f0 <OSFlagPend+0x48c>

        case OS_FLAG_WAIT_CLR_ANY:
             flags_rdy = (OS_FLAGS)(~pgrp->OSFlagFlags & flags); /* Extract only the bits we want      */
    370c:	e0bff917 	ldw	r2,-28(fp)
    3710:	1080020b 	ldhu	r2,8(r2)
    3714:	0084303a 	nor	r2,zero,r2
    3718:	1007883a 	mov	r3,r2
    371c:	e0bffa0b 	ldhu	r2,-24(fp)
    3720:	1884703a 	and	r2,r3,r2
    3724:	e0bff30d 	sth	r2,-52(fp)
             if (flags_rdy != (OS_FLAGS)0) {               /* See if any flag cleared                  */
    3728:	e0bff30b 	ldhu	r2,-52(fp)
    372c:	1005003a 	cmpeq	r2,r2,zero
    3730:	1000181e 	bne	r2,zero,3794 <OSFlagPend+0x430>
                 if (consume == OS_TRUE) {                 /* See if we need to consume the flags      */
    3734:	e0bff203 	ldbu	r2,-56(fp)
    3738:	10800058 	cmpnei	r2,r2,1
    373c:	1000071e 	bne	r2,zero,375c <OSFlagPend+0x3f8>
                     pgrp->OSFlagFlags |= flags_rdy;       /* Set ONLY the flags that we got           */
    3740:	e0bff917 	ldw	r2,-28(fp)
    3744:	10c0020b 	ldhu	r3,8(r2)
    3748:	e0bff30b 	ldhu	r2,-52(fp)
    374c:	1884b03a 	or	r2,r3,r2
    3750:	1007883a 	mov	r3,r2
    3754:	e0bff917 	ldw	r2,-28(fp)
    3758:	10c0020d 	sth	r3,8(r2)
                 }
                 OSTCBCur->OSTCBFlagsRdy = flags_rdy;      /* Save flags that were ready               */
    375c:	00800074 	movhi	r2,1
    3760:	1082f104 	addi	r2,r2,3012
    3764:	10c00017 	ldw	r3,0(r2)
    3768:	e0bff30b 	ldhu	r2,-52(fp)
    376c:	18800b0d 	sth	r2,44(r3)
    3770:	e0bff117 	ldw	r2,-60(fp)
    3774:	e0bfe915 	stw	r2,-92(fp)
    3778:	e0bfe917 	ldw	r2,-92(fp)
    377c:	1001703a 	wrctl	status,r2
                 OS_EXIT_CRITICAL();                       /* Yes, condition met, return to caller     */
                 *perr                   = OS_ERR_NONE;
    3780:	e0800217 	ldw	r2,8(fp)
    3784:	10000005 	stb	zero,0(r2)
                 return (flags_rdy);
    3788:	e0fff30b 	ldhu	r3,-52(fp)
    378c:	e0ffff15 	stw	r3,-4(fp)
    3790:	00007f06 	br	3990 <OSFlagPend+0x62c>
             } else {                                      /* Block task until events occur or timeout */
                 OS_FlagBlock(pgrp, &node, flags, wait_type, timeout);
    3794:	e1bffa0b 	ldhu	r6,-24(fp)
    3798:	e1fffb03 	ldbu	r7,-20(fp)
    379c:	e0bffc0b 	ldhu	r2,-16(fp)
    37a0:	e17ff404 	addi	r5,fp,-48
    37a4:	d8800015 	stw	r2,0(sp)
    37a8:	e13ff917 	ldw	r4,-28(fp)
    37ac:	0003e8c0 	call	3e8c <OS_FlagBlock>
    37b0:	e0bff117 	ldw	r2,-60(fp)
    37b4:	e0bfe815 	stw	r2,-96(fp)
    37b8:	e0bfe817 	ldw	r2,-96(fp)
    37bc:	1001703a 	wrctl	status,r2
                 OS_EXIT_CRITICAL();
             }
             break;
    37c0:	00000b06 	br	37f0 <OSFlagPend+0x48c>
    37c4:	e0bff117 	ldw	r2,-60(fp)
    37c8:	e0bfe715 	stw	r2,-100(fp)
    37cc:	e0bfe717 	ldw	r2,-100(fp)
    37d0:	1001703a 	wrctl	status,r2
#endif

        default:
             OS_EXIT_CRITICAL();
             flags_rdy = (OS_FLAGS)0;
    37d4:	e03ff30d 	sth	zero,-52(fp)
             *perr      = OS_ERR_FLAG_WAIT_TYPE;
    37d8:	e0c00217 	ldw	r3,8(fp)
    37dc:	00801bc4 	movi	r2,111
    37e0:	18800005 	stb	r2,0(r3)
             return (flags_rdy);
    37e4:	e0bff30b 	ldhu	r2,-52(fp)
    37e8:	e0bfff15 	stw	r2,-4(fp)
    37ec:	00006806 	br	3990 <OSFlagPend+0x62c>
    }
/*$PAGE*/
    OS_Sched();                                            /* Find next HPT ready to run               */
    37f0:	00021400 	call	2140 <OS_Sched>
static ALT_INLINE alt_irq_context ALT_ALWAYS_INLINE 
       alt_irq_disable_all (void)
{
  alt_irq_context context;

  NIOS2_READ_STATUS (context);
    37f4:	0005303a 	rdctl	r2,status
